(dp0
(S'at'
p1
tp2
(lp3
S'once.'
p4
aS'me,'
p5
aS'all,'
p6
aS'least.'
p7
aS'one'
p8
aS'the'
p9
aS'one'
p10
aS'the'
p11
aS'least'
p12
aS'the'
p13
aS'least'
p14
aS'the'
p15
aS'yoga'
p16
aS'the'
p17
aS'the'
p18
aS'my'
p19
aS'the'
p20
aS'the'
p21
aS'the'
p22
aS'this'
p23
aS'the'
p24
aS'the'
p25
aS'the'
p26
aS'this'
p27
as(S'afraid.'
p28
tp29
(lp30
S'END'
p31
as(S'me,'
p32
tp33
(lp34
S'I'
p35
aS'to'
p36
aS'and'
p37
aS'You'
p38
aS'because'
p39
aS'although'
p40
aS'because'
p41
ag35
aS'telling'
p42
aS'the'
p43
aS'this'
p44
aS'dear'
p45
aS'loud'
p46
ag35
aS'especially'
p47
as(S'familiar.'
p48
tp49
(lp50
S'END'
p51
as(S'difficult'
p52
tp53
(lp54
S'situations'
p55
aS'but'
p56
aS'to'
p57
as(S'entities'
p58
tp59
(lp60
g35
aS'were'
p61
aS'to'
p62
aS'of'
p63
aS'seemed'
p64
as(S'it'
p65
tp66
(lp67
S'wasnt'
p68
aS'all'
p69
aS'wasnt'
p70
aS'reminded'
p71
aS'over.'
p72
aS'again?'
p73
aS'was'
p74
aS'seemed'
p75
aS'would'
p76
aS'was'
p77
aS'to'
p78
aS'was'
p79
aS'was'
p80
aS'was'
p81
aS'was'
p82
aS'was'
p83
aS'was'
p84
aS'was'
p85
aS'expressed'
p86
aS'was'
p87
aS'saw.'
p88
aS'did'
p89
aS'spoke,'
p90
aS'just'
p91
aS'really'
p92
aS'and'
p93
aS'was'
p94
aS'later'
p95
aS'on'
p96
aS'as'
p97
aS'is'
p98
aS'to'
p99
aS'would'
p100
aS'felt'
p101
aS'is'
p102
aS'for'
p103
aS'through'
p104
aS'rust'
p105
aS'can'
p106
aS'sent'
p107
aS'said'
p108
aS'left'
p109
aS'evolved'
p110
aS'is'
p111
aS'feel'
p112
aS'is'
p113
aS'in'
p114
aS'is'
p115
aS'keeps'
p116
aS'is'
p117
aS'and'
p118
aS'until'
p119
aS'if'
p120
aS'all.'
p121
aS'has'
p122
aS'and'
p123
aS'until'
p124
aS'softens'
p125
aS'out'
p126
aS'and'
p127
aS'does'
p128
aS'thought'
p129
aS'here'
p130
aS'was'
p131
aS'all.'
p132
aS'got'
p133
aS'was'
p134
aS'should'
p135
aS'then,'
p136
aS'finally'
p137
aS'was'
p138
aS'did'
p139
aS'to'
p140
aS"wasn't"
p141
aS'the'
p142
aS'right'
p143
aS'happened.'
p144
aS'out'
p145
aS'took'
p146
aS'knowing'
p147
aS'was'
p148
as(S'intricate'
p149
tp150
(lp151
S'dance'
p152
as(g128
tp153
(lp154
S'so,'
p155
aS'it'
p156
as(S'brew.'
p157
tp158
(lp159
S'END'
p160
aS'END'
p161
as(S'now'
p162
tp163
(lp164
S'pronounce'
p165
aS'so'
p166
ag35
as(S'smoke'
p167
tp168
(lp169
S'all'
p170
aS'into'
p171
aS'made'
p172
aS'a'
p173
as(S'subconscious.'
p174
tp175
(lp176
S'END'
p177
as(S'wild.'
p178
tp179
(lp180
S'END'
p181
as(S'laugh.'
p182
tp183
(lp184
S'END'
p185
as(S'them;'
p186
tp187
(lp188
g35
as(S'Only'
p189
tp190
(lp191
S'then'
p192
as(S'Became'
p193
tp194
(lp195
S'overwhelmed'
p196
as(S'done'
p197
tp198
(lp199
S'with'
p200
aS'with'
p201
aS'and'
p202
aS'purging'
p203
aS'purging.'
p204
as(S'faculties'
p205
tp206
(lp207
S'were'
p208
as(S'imagery.'
p209
tp210
(lp211
S'END'
p212
as(S'When'
p213
tp214
(lp215
g35
aS'it'
p216
ag35
aS'the'
p217
aS'everything'
p218
as(S'whirring,'
p219
tp220
(lp221
S'manic,'
p222
as(S'edge'
p223
tp224
(lp225
S'of'
p226
as(S'howls.'
p227
tp228
(lp229
S'END'
p230
as(S'common'
p231
tp232
(lp233
S'on'
p234
as(S'way'
p235
tp236
(lp237
S'back.'
p238
aS'more'
p239
aS'she'
p240
aS'for'
p241
aS'through'
p242
aS'with'
p243
as(S'slows'
p244
tp245
(lp246
g173
as(S'car'
p247
tp248
(lp249
S'of'
p250
as(S'if'
p251
tp252
(lp253
g35
ag35
aS'they'
p254
aS'they'
p255
aS'you'
p256
ag35
ag35
aS'God'
p257
aS'my'
p258
aS'far'
p259
ag35
aS'you'
p260
aS'we'
p261
ag35
ag35
aS'anyone'
p262
as(S'concerned'
p263
tp264
(lp265
S'but'
p266
as(S'later'
p267
tp268
(lp269
S'in'
p270
aS'and'
p271
aS'that'
p272
aS'that'
p273
as(S'terror,'
p274
tp275
(lp276
S'had'
p277
as(S'Aliens.'
p278
tp279
(lp280
S'END'
p281
as(S'brujo'
p282
tp283
(lp284
S'had'
p285
as(S'prospect,'
p286
tp287
(lp288
S'and'
p289
as(S'gently.'
p290
tp291
(lp292
S'END'
p293
as(S'know'
p294
tp295
(lp296
S'that'
p297
aS'how'
p298
ag173
aS'how'
p299
aS'what'
p300
aS'so'
p301
aS"we've"
p302
ag35
as(S'HAD'
p303
tp304
(lp305
S'EVER'
p306
as(S'ayahuasca,'
p307
tp308
(lp309
S'yoga,'
p310
as(S'go'
p311
tp312
(lp313
S'find'
p314
aS'next.'
p315
aS'back'
p316
aS'to'
p317
aS'into'
p318
aS'away.'
p319
aS'through'
p320
aS'and'
p321
aS'for'
p322
aS'next...often'
p323
aS'of'
p324
aS'outside,'
p325
as(S'represent'
p326
tp327
(lp328
g173
as(S'everyone'
p329
tp330
(lp331
S'briefly'
p332
aS'in'
p333
aS'who'
p334
as(S'fingers'
p335
tp336
(lp337
S'in'
p338
as(S'struggled'
p339
tp340
(lp341
S'SO'
p342
as(S'arrive'
p343
tp344
(lp345
S'and'
p346
as(S'Curanderismo'
p347
tp348
(lp349
S'while'
p350
aS'was'
p351
aS'noticed'
p352
as(S'worthy'
p353
tp354
(lp355
S'of'
p356
as(S'red'
p357
tp358
(lp359
S'light'
p360
as(S'happier'
p361
tp362
(lp363
S'because'
p364
as(S'alone'
p365
tp366
(lp367
S'and'
p368
as(S'jungle'
p369
tp370
(lp371
S'version'
p372
as(S'brittle'
p373
tp374
(lp375
S'piece'
p376
aS'piece'
p377
as(S'mountains'
p378
tp379
(lp380
S'and'
p381
as(S'totally'
p382
tp383
(lp384
S'ecstatic'
p385
aS'sober.'
p386
aS'blissed'
p387
ag173
aS'blown'
p388
aS'and'
p389
as(S'end,'
p390
tp391
(lp392
g35
as(S'starts'
p393
tp394
(lp395
S'to'
p396
aS'showing'
p397
as(S'purge.'
p398
tp399
(lp400
S'END'
p401
aS'END'
p402
aS'END'
p403
aS'END'
p404
as(S'purged'
p405
tp406
(lp407
S'into'
p408
aS'so'
p409
as(S'mouth'
p410
tp411
(lp412
S'with'
p413
aS'out'
p414
aS'for'
p415
aS'on'
p416
as(S'connect'
p417
tp418
(lp419
S'to'
p420
as(S'they'
p421
tp422
(lp423
S'allow'
p424
aS'say'
p425
aS'were'
p426
aS'were'
p427
aS'played'
p428
aS'must'
p429
aS'were'
p430
aS'were'
p431
aS'were'
p432
aS'arent'
p433
aS'all'
p434
aS'all'
p435
aS'did'
p436
aS'were'
p437
aS'liked'
p438
aS'were'
p439
aS'said.'
p440
aS'got'
p441
aS'left.'
p442
aS'have'
p443
aS'have'
p444
aS'have'
p445
aS'were'
p446
aS'did,'
p447
aS'had'
p448
as(S'minutes'
p449
tp450
(lp451
g35
aS'after'
p452
as(S'dead?'
p453
tp454
(lp455
S'END'
p456
as(S'told'
p457
tp458
(lp459
S'that'
p460
aS'me'
p461
aS'her'
p462
aS'her'
p463
aS'me'
p464
aS'me'
p465
aS'that'
p466
aS'very'
p467
aS'him'
p468
aS'me'
p469
aS'me'
p470
as(S'heal'
p471
tp472
(lp473
S'me'
p474
as(S'large'
p475
tp476
(lp477
S'frame'
p478
as(S'ludicrous'
p479
tp480
(lp481
S'to'
p482
as(S'needed'
p483
tp484
(lp485
S'help,'
p486
aS'to'
p487
as(S'complex'
p488
tp489
(lp490
S'multicolored'
p491
aS'and'
p492
as(S'eaten'
p493
tp494
(lp495
S'live.'
p496
as(S'one'
p497
tp498
(lp499
S'of'
p500
aS'of'
p501
aS'entity'
p502
aS'of'
p503
aS'another,'
p504
aS'of'
p505
aS'which'
p506
aS'should'
p507
aS'by'
p508
aS'of'
p509
aS'of'
p510
aS'more'
p511
ag35
aS'of'
p512
aS'of'
p513
as(S'chi'
p514
tp515
(lp516
S'breathing'
p517
as(S'again.'
p518
tp519
(lp520
S'END'
p521
aS'END'
p522
aS'END'
p523
aS'END'
p524
aS'END'
p525
aS'END'
p526
aS'END'
p527
as(S'great,'
p528
tp529
(lp530
S'why'
p531
as(S'After'
p532
tp533
(lp534
g35
ag173
aS'all,'
p535
aS'an'
p536
ag173
as(S'designed'
p537
tp538
(lp539
S'to'
p540
as(S'dipping'
p541
tp542
(lp543
S'down'
p544
as(S'merged'
p545
tp546
(lp547
S'together'
p548
as(S'this?'
p549
tp550
(lp551
S'END'
p552
as(S'me...the'
p553
tp554
(lp555
S'plant'
p556
as(g496
tp557
(lp558
S'END'
p559
as(S'remind'
p560
tp561
(lp562
S'me'
p563
as(S'one,'
p564
tp565
(lp566
S'drinking'
p567
as(S'live'
p568
tp569
(lp570
S'in'
p571
as(S'afterglow.'
p572
tp573
(lp574
S'END'
p575
as(S'picking'
p576
tp577
(lp578
S'up'
p579
as(S'machine,'
p580
tp581
(lp582
S'like'
p583
as(S'true'
p584
tp585
(lp586
S'work'
p587
as(S'psychedelic'
p588
tp589
(lp590
S'realm.'
p591
as(S'growl,'
p592
tp593
(lp594
S'and'
p595
as(S'For'
p596
tp597
(lp598
S'hours'
p599
as(S'nuts'
p600
tp601
(lp602
S'and'
p603
as(S'completely'
p604
tp605
(lp606
S'based'
p607
aS'made'
p608
aS'amazed'
p609
aS'torn'
p610
as(S'animal,'
p611
tp612
(lp613
g35
as(S'desperately'
p614
tp615
(lp616
S'thirsty'
p617
as(S'now.'
p618
tp619
(lp620
S'END'
p621
aS'END'
p622
aS'END'
p623
as(S'room.'
p624
tp625
(lp626
S'END'
p627
aS'END'
p628
aS'END'
p629
aS'END'
p630
aS'END'
p631
as(S'condition,'
p632
tp633
(lp634
S'and'
p635
as(S'breath,'
p636
tp637
(lp638
g35
as(S'modern'
p639
tp640
(lp641
S'science.'
p642
as(S'conscious'
p643
tp644
(lp645
S'entities'
p646
as(S'flows'
p647
tp648
(lp649
S'together'
p650
aS'from'
p651
as(S'Cusco.'
p652
tp653
(lp654
S'END'
p655
as(S'maestro.'
p656
tp657
(lp658
S'END'
p659
as(S'spirit'
p660
tp661
(lp662
S'world.'
p663
aS'entered'
p664
ag611
aS'world'
p665
aS'realm.'
p666
aS'realm,'
p667
as(S'Tears'
p668
tp669
(lp670
S'of'
p671
as(S'position'
p672
tp673
(lp674
S'that'
p675
as(S'was,'
p676
tp677
(lp678
S'and'
p679
aS'as'
p680
as(S'rapture'
p681
tp682
(lp683
S'filled'
p684
aS'as'
p685
as(S'happen.'
p686
tp687
(lp688
S'END'
p689
as(S'necessarily'
p690
tp691
(lp692
S'seen,'
p693
as(S'things.'
p694
tp695
(lp696
S'END'
p697
aS'END'
p698
as(S'experiences.'
p699
tp700
(lp701
S'END'
p702
aS'END'
p703
as(S'into'
p704
tp705
(lp706
S'small,'
p707
aS'the'
p708
aS'direct'
p709
aS'the'
p710
aS'the'
p711
aS'the'
p712
aS'the'
p713
aS'the'
p714
aS'hyperspace.'
p715
aS'her'
p716
aS'one.'
p717
aS'the'
p718
aS'the'
p719
aS'me'
p720
aS'good'
p721
aS'my'
p722
ag173
aS'the'
p723
aS'the'
p724
aS'an'
p725
aS'the'
p726
aS'something.'
p727
aS'it'
p728
aS'the'
p729
aS'my'
p730
aS'the'
p731
aS'my'
p732
aS'our'
p733
aS'them.'
p734
aS'my'
p735
aS'one'
p736
as(S'Complete'
p737
tp738
(lp739
S'and'
p740
as(S"didn't"
p741
tp742
(lp743
S'grab'
p744
as(S'laid'
p745
tp746
(lp747
S'down.'
p748
aS'down,'
p749
aS'down'
p750
as(S'cusp'
p751
tp752
(lp753
S'of'
p754
as(S'observing'
p755
tp756
(lp757
S'them,'
p758
as(S'circle.'
p759
tp760
(lp761
S'END'
p762
aS'END'
p763
aS'END'
p764
as(S'glory,'
p765
tp766
(lp767
S'and'
p768
as(S'information,'
p769
tp770
(lp771
S'stories,'
p772
as(S'maybe'
p773
tp774
(lp775
S'the'
p776
as(S'before'
p777
tp778
(lp779
S'participating'
p780
aS'pouring'
p781
aS'have'
p782
ag35
aS'it'
p783
aS'the'
p784
as(S'While'
p785
tp786
(lp787
g35
as(S'arrived'
p788
tp789
(lp790
S'in'
p791
aS'at'
p792
as(S'smile'
p793
tp794
(lp795
S'on'
p796
as(S'chanting'
p797
tp798
(lp799
S'of'
p800
as(S'something'
p801
tp802
(lp803
S'wasnt'
p804
aS'else!!'
p805
aS'along'
p806
aS'so'
p807
aS'that'
p808
aS'non-physical'
p809
aS'else'
p810
aS'like'
p811
aS'out'
p812
as(S'confused.'
p813
tp814
(lp815
S'END'
p816
as(S'before.'
p817
tp818
(lp819
S'END'
p820
as(S'plant.'
p821
tp822
(lp823
S'END'
p824
aS'END'
p825
as(S'syllable'
p826
tp827
(lp828
S'he'
p829
as(S'always.'
p830
tp831
(lp832
S'END'
p833
as(S'nice'
p834
tp835
(lp836
S'feminine'
p837
as(S'source'
p838
tp839
(lp840
S'of'
p841
as(S"for??'"
p842
tp843
(lp844
S'END'
p845
as(S'body.'
p846
tp847
(lp848
S'END'
p849
aS'END'
p850
aS'END'
p851
as(S'annals'
p852
tp853
(lp854
S'of'
p855
as(S'terrifying'
p856
tp857
(lp858
S'and'
p859
as(S'A'
p860
tp861
(lp862
S'were'
p863
aS'and'
p864
aS'truly'
p865
aS"frog!!'"
p866
aS'peeper'
p867
as(S'empty,'
p868
tp869
(lp870
S'plastic'
p871
as(g306
tp872
(lp873
S'HEARD.'
p874
as(S'turning'
p875
tp876
(lp877
g173
as(S'red,'
p878
tp879
(lp880
S'orange,'
p881
aS'fueled'
p882
as(S'journeys'
p883
tp884
(lp885
S'while'
p886
as(S'negative'
p887
tp888
(lp889
S'energy'
p890
as(S'experience'
p891
tp892
(lp893
S'it.'
p894
aS'was'
p895
aS'and'
p896
aS'of'
p897
aS'came'
p898
aS'was'
p899
aS'was'
p900
aS'with'
p901
aS'comes'
p902
aS'for'
p903
aS'with'
p904
as(S'remembered'
p905
tp906
(lp907
S'the'
p908
aS'to'
p909
aS'my'
p910
as(S'being'
p911
tp912
(lp913
S'on'
p914
aS'hugged'
p915
aS'very'
p916
aS'struck'
p917
aS'violently'
p918
aS'completely'
p919
aS'of'
p920
as(S'said'
p921
tp922
(lp923
g35
ag35
aS'that'
p924
aS'that'
p925
aS'that'
p926
aS'would'
p927
aS'hi'
p928
aS"'Barely,'"
p929
aS'and'
p930
as(S'path,'
p931
tp932
(lp933
S'and'
p934
as(S'first'
p935
tp936
(lp937
S'3-4'
p938
aS'grade.'
p939
aS'effects'
p940
aS'to'
p941
aS'waves'
p942
aS'met'
p943
as(S'anything'
p944
tp945
(lp946
g35
ag35
aS'of'
p947
ag35
as(g805
tp948
(lp949
S'END'
p950
as(S'grabbed'
p951
tp952
(lp953
S'my'
p954
as(S'N'
p955
tp956
(lp957
S'are'
p958
as(S'laughing'
p959
tp960
(lp961
S'at'
p962
aS'and'
p963
aS'until'
p964
aS'so'
p965
as(S'God,'
p966
tp967
(lp968
g35
aS'in'
p969
aS'please'
p970
as(S'shattered.'
p971
tp972
(lp973
S'END'
p974
as(S'beneficial'
p975
tp976
(lp977
S'to'
p978
as(S'writing,'
p979
tp980
(lp981
S'or'
p982
as(g970
tp983
(lp984
S"don't"
p985
aS"don't"
p986
aS'let'
p987
as(S'that'
p988
tp989
(lp990
S'vomiting'
p991
aS'fasting'
p992
aS'all'
p993
aS'everything'
p994
aS'question'
p995
aS'he'
p996
aS'has'
p997
ag35
aS'this'
p998
aS'they'
p999
aS'they'
p1000
ag35
aS'there'
p1001
aS'may'
p1002
aS'my'
p1003
aS'showed'
p1004
ag286
ag35
aS'controlled'
p1005
ag35
ag35
aS'our'
p1006
aS'the'
p1007
aS'on'
p1008
ag35
ag35
ag35
ag35
aS'out-of-body'
p1009
ag35
ag35
ag35
aS'realm.'
p1010
aS'while'
p1011
aS'there'
p1012
aS'God'
p1013
aS'people'
p1014
ag35
aS'it'
p1015
ag35
ag801
aS'Js'
p1016
aS'separate'
p1017
aS'she'
p1018
aS'changed'
p1019
aS'it'
p1020
aS'it'
p1021
aS'it'
p1022
aS'it'
p1023
ag35
aS'could'
p1024
aS'we'
p1025
aS'this'
p1026
ag35
aS'she'
p1027
aS'was'
p1028
aS'it'
p1029
aS'she'
p1030
aS'felt'
p1031
ag35
aS'we'
p1032
ag35
ag35
aS'we'
p1033
aS'system.'
p1034
ag35
aS'is'
p1035
ag35
aS'this'
p1036
ag35
ag35
aS'my'
p1037
aS'perhaps'
p1038
ag35
ag35
aS'it'
p1039
aS'it'
p1040
aS'letting'
p1041
aS'people'
p1042
aS'and'
p1043
aS'it'
p1044
aS'his'
p1045
aS'it'
p1046
ag35
ag35
aS'the'
p1047
ag35
aS'then'
p1048
ag35
ag35
ag35
aS'the'
p1049
aS'the'
p1050
aS'you'
p1051
aS'one'
p1052
ag35
aS'because'
p1053
aS'it'
p1054
aS'need'
p1055
aS'has'
p1056
aS'it'
p1057
aS'which'
p1058
aS'part'
p1059
ag35
aS'this'
p1060
aS'almost'
p1061
aS'from'
p1062
aS'sometimes'
p1063
aS'if'
p1064
aS'reminded'
p1065
aS'simply'
p1066
aS'hit'
p1067
aS'point'
p1068
aS'moved,'
p1069
aS'spoke,'
p1070
aS'sought'
p1071
aS'if'
p1072
aS'maestro'
p1073
aS'this'
p1074
ag35
aS'at'
p1075
aS'they'
p1076
aS'wanted'
p1077
aS'way.'
p1078
aS'it'
p1079
aS'way,'
p1080
aS'having'
p1081
aS'were'
p1082
aS'intention.'
p1083
aS'of'
p1084
aS'the'
p1085
as(S'wrong'
p1086
tp1087
(lp1088
S'through'
p1089
as(S'answer.'
p1090
tp1091
(lp1092
S'END'
p1093
as(S'long'
p1094
tp1095
(lp1096
S'night'
p1097
aS'it'
p1098
aS'being'
p1099
aS'piece'
p1100
aS'have'
p1101
as(S'every'
p1102
tp1103
(lp1104
S'single'
p1105
aS'memory'
p1106
aS'person'
p1107
aS'fiber'
p1108
as(S'embraced'
p1109
tp1110
(lp1111
S'the'
p1112
as(S'pink'
p1113
tp1114
(lp1115
S'took'
p1116
aS'and'
p1117
as(S'drugs'
p1118
tp1119
(lp1120
S'for'
p1121
as(S'3326'
p1122
tp1123
(lp1124
S'm),'
p1125
as(S'flavor'
p1126
tp1127
(lp1128
S'and'
p1129
as(S'muck,'
p1130
tp1131
(lp1132
S'got'
p1133
as(S'wavelengths'
p1134
tp1135
(lp1136
S'within'
p1137
as(S'panchamama,'
p1138
tp1139
(lp1140
S'as'
p1141
as(S'mystery;'
p1142
tp1143
(lp1144
S'allows'
p1145
as(g642
tp1146
(lp1147
S'END'
p1148
as(S'give'
p1149
tp1150
(lp1151
S'me'
p1152
aS'me'
p1153
as(S'colors'
p1154
tp1155
(lp1156
S'by'
p1157
aS'and'
p1158
as(S'exotic'
p1159
tp1160
(lp1161
S'languages'
p1162
as(S'entangled'
p1163
tp1164
(lp1165
S'in'
p1166
as(S'feeling'
p1167
tp1168
(lp1169
g173
aS'much'
p1170
aS'the'
p1171
aS'so'
p1172
as(S'might'
p1173
tp1174
(lp1175
S'not'
p1176
aS'be'
p1177
aS'even'
p1178
as(S'darkness'
p1179
tp1180
(lp1181
S'that'
p1182
aS'that'
p1183
ag35
aS'and'
p1184
aS'and'
p1185
as(S'humans'
p1186
tp1187
(lp1188
S'cant'
p1189
as(S'forward.'
p1190
tp1191
(lp1192
S'END'
p1193
as(S'ecstatic,'
p1194
tp1195
(lp1196
S'in'
p1197
as(S'ancestors.'
p1198
tp1199
(lp1200
S'END'
p1201
as(S'beautiful'
p1202
tp1203
(lp1204
S'in'
p1205
aS'that'
p1206
aS'gift'
p1207
aS'sights,'
p1208
as(S'silent,'
p1209
tp1210
(lp1211
S'and'
p1212
as(S'stretch'
p1213
tp1214
(lp1215
S'and'
p1216
as(S'joke'
p1217
tp1218
(lp1219
g35
as(S'seems'
p1220
tp1221
(lp1222
S'to'
p1223
aS'to'
p1224
as(S'surroundings.'
p1225
tp1226
(lp1227
S'END'
p1228
as(S'help.'
p1229
tp1230
(lp1231
S'END'
p1232
as(S'words'
p1233
tp1234
(lp1235
S'adequate'
p1236
aS'of'
p1237
aS'were'
p1238
as(S'bumped'
p1239
tp1240
(lp1241
S'once.'
p1242
as(S'dreaming'
p1243
tp1244
(lp1245
S'comes'
p1246
as(S'friendly'
p1247
tp1248
(lp1249
S'man)'
p1250
aS'frogs'
p1251
as(S'compassion.'
p1252
tp1253
(lp1254
S'END'
p1255
as(S'divinity'
p1256
tp1257
(lp1258
S'seemed'
p1259
as(S'for'
p1260
tp1261
(lp1262
S'30'
p1263
aS'the'
p1264
ag421
aS'few'
p1265
ag773
aS'our'
p1266
aS'what'
p1267
aS'the'
p1268
aS'death'
p1269
aS'temporary'
p1270
aS'my'
p1271
aS'permission'
p1272
aS'permission'
p1273
aS'our'
p1274
aS'the'
p1275
aS'prayer.'
p1276
aS'my'
p1277
aS'the'
p1278
aS'the'
p1279
aS'trying'
p1280
aS'it'
p1281
aS'themselves'
p1282
aS'what'
p1283
aS'30000'
p1284
aS'me'
p1285
aS'this'
p1286
aS'you.'
p1287
ag173
aS'it.'
p1288
aS'it'
p1289
aS'anyone'
p1290
ag173
aS'my'
p1291
ag553
aS'what'
p1292
aS'this,'
p1293
aS'assistance'
p1294
aS'my'
p1295
aS'the'
p1296
aS'the'
p1297
aS'leaning'
p1298
ag173
as(S'other'
p1299
tp1300
(lp1301
S'aliens'
p1302
aS'breakthrough'
p1303
aS'two'
p1304
aS'things'
p1305
aS"before.'"
p1306
as(g147
tp1307
(lp1308
g35
as(S'Another'
p1309
tp1310
(lp1311
S'shaman,'
p1312
aS'gift'
p1313
as(S'prayed'
p1314
tp1315
(lp1316
S'that'
p1317
as(S'numb.'
p1318
tp1319
(lp1320
S'END'
p1321
as(S'dream.'
p1322
tp1323
(lp1324
S'END'
p1325
as(S'family.'
p1326
tp1327
(lp1328
S'END'
p1329
as(S'freaking'
p1330
tp1331
(lp1332
S'her'
p1333
as(g388
tp1334
(lp1335
S'away.'
p1336
as(S'warm'
p1337
tp1338
(lp1339
S'and'
p1340
aS'and'
p1341
as(g548
tp1342
(lp1343
S'into'
p1344
aS'through'
p1345
aS'to'
p1346
aS'and'
p1347
as(S'fast.'
p1348
tp1349
(lp1350
S'END'
p1351
as(S'desire'
p1352
tp1353
(lp1354
S'to'
p1355
aS'to'
p1356
aS'for'
p1357
as(S'placement,'
p1358
tp1359
(lp1360
S'each'
p1361
as(S'great'
p1362
tp1363
(lp1364
S'dream'
p1365
aS'arks'
p1366
as(S'display'
p1367
tp1368
(lp1369
S'that'
p1370
as(S'thank'
p1371
tp1372
(lp1373
S'GOD,'
p1374
as(S'differences'
p1375
tp1376
(lp1377
S'must'
p1378
aS'between'
p1379
as(S'get.'
p1380
tp1381
(lp1382
S'END'
p1383
as(S'hallucinating,'
p1384
tp1385
(lp1386
g35
as(S'That'
p1387
tp1388
(lp1389
S'resounded'
p1390
aS'was'
p1391
aS'sounds'
p1392
as(S'more;'
p1393
tp1394
(lp1395
S'he'
p1396
as(S'emotion'
p1397
tp1398
(lp1399
S'of'
p1400
as(S'Immediately,'
p1401
tp1402
(lp1403
g35
as(S'purple'
p1404
tp1405
(lp1406
S'and'
p1407
as(S'shot'
p1408
tp1409
(lp1410
S'off'
p1411
as(S'studied'
p1412
tp1413
(lp1414
S'by'
p1415
as(S'able'
p1416
tp1417
(lp1418
S'to'
p1419
as(S'judgement,'
p1420
tp1421
(lp1422
S'even'
p1423
as(S'transforms'
p1424
tp1425
(lp1426
S'itself'
p1427
as(S'ground,'
p1428
tp1429
(lp1430
S'no'
p1431
aS'still'
p1432
as(S'loud'
p1433
tp1434
(lp1435
S'noise,'
p1436
aS'and'
p1437
as(S'weird,'
p1438
tp1439
(lp1440
S'but'
p1441
as(S'uncontrollably'
p1442
tp1443
(lp1444
g1384
aS'cry.'
p1445
as(S'intestines'
p1446
tp1447
(lp1448
S'glowing'
p1449
as(S'room'
p1450
tp1451
(lp1452
S'an'
p1453
aS'was'
p1454
aS'started'
p1455
aS'became'
p1456
aS'as'
p1457
aS'joined'
p1458
aS'at'
p1459
as(S'thoughts.'
p1460
tp1461
(lp1462
S'END'
p1463
aS'END'
p1464
as(S'real.'
p1465
tp1466
(lp1467
S'END'
p1468
aS'END'
p1469
aS'END'
p1470
as(S'earth-like'
p1471
tp1472
(lp1473
S'and'
p1474
as(S'unfold.'
p1475
tp1476
(lp1477
S'END'
p1478
as(S'take'
p1479
tp1480
(lp1481
S'effect,'
p1482
aS'me'
p1483
aS'the'
p1484
aS'over.'
p1485
as(S'alignment'
p1486
tp1487
(lp1488
S'that'
p1489
as(S'there'
p1490
tp1491
(lp1492
S'to'
p1493
aS'with'
p1494
aS'were'
p1495
aS'are'
p1496
aS'was'
p1497
aS'is'
p1498
aS'were'
p1499
aS'was'
p1500
as(S'achieved'
p1501
tp1502
(lp1503
g817
as(S'star-like'
p1504
tp1505
(lp1506
S'jewels,'
p1507
as(S'guys.'
p1508
tp1509
(lp1510
S'END'
p1511
as(S'myrrh.'
p1512
tp1513
(lp1514
S'END'
p1515
as(S'last'
p1516
tp1517
(lp1518
S'long.'
p1519
aS'year,'
p1520
as(S'seen'
p1521
tp1522
(lp1523
S'my'
p1524
aS'so'
p1525
aS'each'
p1526
as(S'breathe'
p1527
tp1528
(lp1529
S'somehow,'
p1530
as(S'consist'
p1531
tp1532
(lp1533
S'of'
p1534
as(S'mind'
p1535
tp1536
(lp1537
S'and'
p1538
as(S'infinitely'
p1539
tp1540
(lp1541
S'more'
p1542
as(S'state'
p1543
tp1544
(lp1545
S'of'
p1546
as(S'miles'
p1547
tp1548
(lp1549
S'without'
p1550
as(S'ok,'
p1551
tp1552
(lp1553
S'and'
p1554
as(S'stand'
p1555
tp1556
(lp1557
S'and'
p1558
as(S'respond'
p1559
tp1560
(lp1561
S'si.'
p1562
as(S'growling'
p1563
tp1564
(lp1565
S'at'
p1566
as(S'those'
p1567
tp1568
(lp1569
S'things'
p1570
ag1460
aS'who'
p1571
aS'of'
p1572
as(S'green,'
p1573
tp1574
(lp1575
S'black'
p1576
as(S'normal'
p1577
tp1578
(lp1579
S'because'
p1580
aS'now'
p1581
as(S'lurching'
p1582
tp1583
(lp1584
S'for'
p1585
as(S'hopping'
p1586
tp1587
(lp1588
S'around.'
p1589
as(g1041
tp1590
(lp1591
S'this'
p1592
as(S'reading'
p1593
tp1594
(lp1595
S'this,'
p1596
as(S'can.'
p1597
tp1598
(lp1599
S'END'
p1600
as(S'(Y)'
p1601
tp1602
(lp1603
S'was'
p1604
as(S'within'
p1605
tp1606
(lp1607
S'the'
p1608
ag173
aS'directed'
p1609
aS'the'
p1610
aS'me,'
p1611
aS'everyone.'
p1612
as(S'altar.'
p1613
tp1614
(lp1615
S'END'
p1616
as(S'somebody'
p1617
tp1618
(lp1619
g1593
aS'was'
p1620
as(S'stopped'
p1621
tp1622
(lp1623
S'fighting,'
p1624
as(S'embroiled'
p1625
tp1626
(lp1627
S'in'
p1628
as(S'happened.'
p1629
tp1630
(lp1631
S'END'
p1632
aS'END'
p1633
aS'END'
p1634
as(S'Doing'
p1635
tp1636
(lp1637
S'the'
p1638
as(S'nowhere'
p1639
tp1640
(lp1641
S'near'
p1642
as(S'sound'
p1643
tp1644
(lp1645
g479
aS'and'
p1646
aS'started...my'
p1647
as(S'side'
p1648
tp1649
(lp1650
S'of'
p1651
as(S'backyards'
p1652
tp1653
(lp1654
S'of'
p1655
as(S'takes'
p1656
tp1657
(lp1658
S'away'
p1659
as(S'sitting.'
p1660
tp1661
(lp1662
S'END'
p1663
as(S'dancing'
p1664
tp1665
(lp1666
S'around'
p1667
aS'around'
p1668
as(S'connection.'
p1669
tp1670
(lp1671
S'END'
p1672
as(S'hadnt'
p1673
tp1674
(lp1675
g1521
aS'had'
p1676
aS'felt'
p1677
aS'gone'
p1678
as(S'existence'
p1679
tp1680
(lp1681
S'of'
p1682
as(g1647
tp1683
(lp1684
S'body'
p1685
as(S'shaken'
p1686
tp1687
(lp1688
S'from'
p1689
aS'and'
p1690
as(g997
tp1691
(lp1692
S'yet'
p1693
ag173
aS'size,'
p1694
aS'been.'
p1695
ag173
aS'become'
p1696
aS'been'
p1697
ag173
as(S'ungrateful'
p1698
tp1699
(lp1700
S'and'
p1701
as(S'pulled'
p1702
tp1703
(lp1704
S'out'
p1705
as(S'capacity'
p1706
tp1707
(lp1708
S'to'
p1709
as(S'advice'
p1710
tp1711
(lp1712
S'and'
p1713
as(S'me.'
p1714
tp1715
(lp1716
S'END'
p1717
aS'END'
p1718
aS'END'
p1719
aS'END'
p1720
aS'END'
p1721
aS'END'
p1722
aS'END'
p1723
aS'END'
p1724
aS'END'
p1725
aS'END'
p1726
aS'END'
p1727
as(g1071
tp1728
(lp1729
S'out'
p1730
as(S'yoga/martial'
p1731
tp1732
(lp1733
S'arts'
p1734
as(S'funny'
p1735
tp1736
(lp1737
S'thing'
p1738
as(S'right'
p1739
tp1740
(lp1741
S'outside'
p1742
aS'was'
p1743
aS'before'
p1744
as(S'animals.'
p1745
tp1746
(lp1747
S'END'
p1748
as(S'custom'
p1749
tp1750
(lp1751
S'built'
p1752
as(S'ultra'
p1753
tp1754
(lp1755
S'powerful'
p1756
as(S'ethereal'
p1757
tp1758
(lp1759
S'realm.'
p1760
as(S'Overwhelmed'
p1761
tp1762
(lp1763
S'with'
p1764
as(S'FILLED'
p1765
tp1766
(lp1767
S'with'
p1768
as(g715
tp1769
(lp1770
S'END'
p1771
as(S'felt'
p1772
tp1773
(lp1774
g173
aS'very'
p1775
aS'like'
p1776
aS'the'
p1777
aS'like'
p1778
aS'like'
p1779
aS'more'
p1780
ag1337
aS'safe'
p1781
aS'our'
p1782
ag382
aS'them'
p1783
aS'them'
p1784
aS'something'
p1785
aS'like'
p1786
aS'like'
p1787
aS'like'
p1788
aS'this'
p1789
aS'that'
p1790
aS'that'
p1791
aS'in'
p1792
aS'the'
p1793
aS'VERY'
p1794
aS'very'
p1795
ag173
aS'myself'
p1796
aS'like'
p1797
aS'so'
p1798
aS'foreign'
p1799
aS'much'
p1800
aS'amazing.'
p1801
aS'like'
p1802
aS'far'
p1803
ag173
aS'another'
p1804
aS'in'
p1805
aS'myself'
p1806
aS'so'
p1807
aS'trepidation...I'
p1808
aS'such'
p1809
aS'so'
p1810
as(S'some'
p1811
tp1812
(lp1813
S'dark'
p1814
aS'strong,'
p1815
aS'windows'
p1816
ag52
aS'would'
p1817
aS'point'
p1818
aS'point'
p1819
aS'sort'
p1820
ag1757
aS'personal'
p1821
aS'sort'
p1822
aS'sort'
p1823
aS'sort'
p1824
ag1362
aS'appreciation'
p1825
aS'point,'
p1826
as(S'possible'
p1827
tp1828
(lp1829
S'frequencies'
p1830
as(S'prayer,'
p1831
tp1832
(lp1833
S'then'
p1834
as(S'determined'
p1835
tp1836
(lp1837
S'that'
p1838
as(S'ill...I'
p1839
tp1840
(lp1841
S'slowly'
p1842
as(S'and'
p1843
tp1844
(lp1845
g35
aS'projected'
p1846
aS'coca'
p1847
ag745
ag35
aS'she'
p1848
aS'then'
p1849
aS'Im'
p1850
aS'flutes'
p1851
aS'vocal'
p1852
aS'jaguars'
p1853
aS'hunts'
p1854
aS'feasts'
p1855
aS'people,'
p1856
aS'it'
p1857
aS'the'
p1858
aS'the'
p1859
ag35
aS'if'
p1860
aS'scrutinizing'
p1861
aS'most'
p1862
aS'all,'
p1863
ag921
aS'went'
p1864
aS'soon'
p1865
ag1563
ag35
aS'then'
p1866
aS'when'
p1867
ag35
aS'myself.'
p1868
ag35
aS'looked'
p1869
aS'empathize,'
p1870
aS'the'
p1871
aS'beautiful'
p1872
aS'about'
p1873
aS'the'
p1874
aS'tears'
p1875
aS'all.'
p1876
ag1314
aS'utter'
p1877
aS'into'
p1878
aS'my'
p1879
aS'it'
p1880
aS'regret,'
p1881
aS'raising'
p1882
aS'theres'
p1883
aS'Spirits'
p1884
ag35
ag35
aS'just'
p1885
aS'content'
p1886
aS'it'
p1887
aS'came'
p1888
aS'lead'
p1889
aS'then'
p1890
aS'fell'
p1891
aS'then'
p1892
aS'his'
p1893
aS'loving'
p1894
aS'felt'
p1895
aS'warm'
p1896
aS'wonderful'
p1897
aS'into'
p1898
aS'the'
p1899
aS'we'
p1900
ag35
aS'in'
p1901
aS'filled'
p1902
aS'made'
p1903
ag35
aS'they'
p1904
ag35
aS'off,'
p1905
aS'who'
p1906
aS'that'
p1907
aS'us.'
p1908
aS'at'
p1909
aS'did'
p1910
aS'then'
p1911
aS'wonderful'
p1912
aS'my'
p1913
aS'it'
p1914
aS'wrapped'
p1915
aS'we'
p1916
aS'joy.'
p1917
aS'wanting'
p1918
aS'that'
p1919
aS'that'
p1920
aS'had'
p1921
aS'said'
p1922
aS'left'
p1923
aS'dipped'
p1924
aS'dribbling'
p1925
aS'down'
p1926
aS'contemplated'
p1927
ag541
aS'everything'
p1928
aS'swirling.'
p1929
aS'over'
p1930
ag35
aS'the'
p1931
aS'as'
p1932
aS'what'
p1933
aS'almost'
p1934
aS'they'
p1935
ag35
aS'rocks'
p1936
ag378
aS'rivers.'
p1937
aS'my'
p1938
aS'my'
p1939
aS'showed'
p1940
aS'martial'
p1941
aS'to'
p1942
ag1698
aS'that'
p1943
ag173
aS'they'
p1944
aS'mud'
p1945
aS'break'
p1946
aS'an'
p1947
aS'then'
p1948
ag35
ag860
ag955
aS'went'
p1949
aS'wonderful.'
p1950
aS'feel'
p1951
aS'moving'
p1952
aS'felt'
p1953
aS'cycle'
p1954
aS'then'
p1955
aS'with'
p1956
ag35
aS'martial'
p1957
aS'it'
p1958
aS'things'
p1959
aS'yoga'
p1960
aS'it'
p1961
aS'deeper'
p1962
ag35
ag35
aS'hang'
p1963
aS'A.'
p1964
aS'talking'
p1965
aS'telling'
p1966
aS'that'
p1967
aS'stands'
p1968
aS'talking'
p1969
aS'laughing'
p1970
aS'playing'
p1971
aS'being'
p1972
aS'my'
p1973
aS'the'
p1974
ag35
ag35
aS'working'
p1975
aS'now'
p1976
aS'clean'
p1977
aS'powerful'
p1978
ag35
aS'the'
p1979
aS'brings'
p1980
aS'relaxation.'
p1981
aS'we'
p1982
aS'then'
p1983
aS'think'
p1984
aS'seems'
p1985
aS'directed'
p1986
aS'innumerable'
p1987
aS'helping'
p1988
ag35
aS'it'
p1989
ag35
aS'completely'
p1990
aS'filled'
p1991
aS'martial'
p1992
aS'happiness'
p1993
aS'thinking'
p1994
aS'kept'
p1995
aS'so?'
p1996
aS'take'
p1997
aS'that'
p1998
aS'yet'
p1999
aS'then'
p2000
aS'the'
p2001
aS'hard'
p2002
ag1113
aS'the'
p2003
aS'became'
p2004
aS'comfort'
p2005
aS'walking'
p2006
aS'cracked.'
p2007
ag1247
ag173
ag1745
aS'relocating'
p2008
aS'more'
p2009
aS'rocking'
p2010
aS'dry'
p2011
aS'red,'
p2012
aS'out'
p2013
aS'forced.'
p2014
aS'did'
p2015
ag951
aS'asked'
p2016
aS'tried'
p2017
aS'told'
p2018
aS'two'
p2019
aS'putting'
p2020
aS'sucking'
p2021
ag35
ag405
aS'had'
p2022
aS'all'
p2023
ag173
aS'violence'
p2024
aS'confident'
p2025
ag35
aS'chanted'
p2026
aS'shooshed'
p2027
aS'people'
p2028
aS'painful,'
p2029
aS'move'
p2030
aS'let'
p2031
ag35
aS'startling'
p2032
aS'clear,'
p2033
aS'information'
p2034
aS'insight'
p2035
aS'focused'
p2036
aS'strength'
p2037
aS'explore'
p2038
aS'beautiful'
p2039
aS'how'
p2040
aS'the'
p2041
aS'lovely'
p2042
aS'there'
p2043
aS'support.'
p2044
aS'white'
p2045
aS'realized'
p2046
aS'so'
p2047
aS'will'
p2048
aS'will'
p2049
aS'done,'
p2050
aS'either'
p2051
ag173
ag1109
aS'for'
p2052
aS'rapture'
p2053
aS'bread.'
p2054
aS'sisters,'
p2055
aS'found'
p2056
aS'found'
p2057
aS'was'
p2058
ag173
aS'despite'
p2059
aS'the'
p2060
aS'powerful'
p2061
as(S'ball'
p2062
tp2063
(lp2064
S'that'
p2065
as(S'condition'
p2066
tp2067
(lp2068
S'than'
p2069
aS'for'
p2070
aS'was'
p2071
as(S'shared'
p2072
tp2073
(lp2074
S'our'
p2075
aS'someone'
p2076
as(S'reaction'
p2077
tp2078
(lp2079
S'to'
p2080
as(S'afterwards.'
p2081
tp2082
(lp2083
S'END'
p2084
as(S'work,'
p2085
tp2086
(lp2087
g35
as(g90
tp2088
(lp2089
S'saying,'
p2090
aS'darkness'
p2091
as(S'move'
p2092
tp2093
(lp2094
S'around'
p2095
aS'through'
p2096
aS'into'
p2097
aS'the'
p2098
as(S'eating'
p2099
tp2100
(lp2101
S'wholesome'
p2102
as(S'space.'
p2103
tp2104
(lp2105
S'END'
p2106
as(S'obvious'
p2107
tp2108
(lp2109
S'to'
p2110
as(S'ayahuasca.'
p2111
tp2112
(lp2113
S'END'
p2114
aS'END'
p2115
as(S"hadn't"
p2116
tp2117
(lp2118
S'yet'
p2119
as(S'Hell,'
p2120
tp2121
(lp2122
g35
as(S'taking'
p2123
tp2124
(lp2125
S'particular'
p2126
aS'very'
p2127
as(S'combination'
p2128
tp2129
(lp2130
S'of'
p2131
as(g1818
tp2132
(lp2133
g35
aS'the'
p2134
aS'of'
p2135
aS'had'
p2136
aS'the'
p2137
as(g425
tp2138
(lp2139
S'in'
p2140
aS'they'
p2141
ag35
aS"'Relax,"
p2142
as(S'except'
p2143
tp2144
(lp2145
S'for'
p2146
as(S'Hell'
p2147
tp2148
(lp2149
g35
as(S'far'
p2150
tp2151
(lp2152
S'stranger'
p2153
aS'into'
p2154
aS'as'
p2155
aS'better'
p2156
aS'better'
p2157
aS'more'
p2158
as(S'synergy.'
p2159
tp2160
(lp2161
S'END'
p2162
as(S'sent'
p2163
tp2164
(lp2165
S'cold'
p2166
aS'me'
p2167
aS'an'
p2168
as(S'time,'
p2169
tp2170
(lp2171
g35
aS'the'
p2172
as(S'Hyperspace'
p2173
tp2174
(lp2175
S'was,'
p2176
as(S'Five'
p2177
tp2178
(lp2179
S'minutes'
p2180
as(S'along'
p2181
tp2182
(lp2183
S'the'
p2184
aS'the'
p2185
aS'the'
p2186
as(S'cleanse'
p2187
tp2188
(lp2189
S'myself'
p2190
as(S'enter'
p2191
tp2192
(lp2193
S'my'
p2194
aS'the'
p2195
aS'these'
p2196
as(S'lasted.'
p2197
tp2198
(lp2199
S'END'
p2200
as(S'pose,'
p2201
tp2202
(lp2203
g35
as(S'message'
p2204
tp2205
(lp2206
S'that'
p2207
as(S'ritual'
p2208
tp2209
(lp2210
S'song.'
p2211
aS'was'
p2212
as(S'safe.'
p2213
tp2214
(lp2215
S'END'
p2216
as(S'plenty'
p2217
tp2218
(lp2219
S'of'
p2220
as(S'roof,'
p2221
tp2222
(lp2223
S'which'
p2224
as(S'stirring'
p2225
tp2226
(lp2227
S'and'
p2228
as(g667
tp2229
(lp2230
S'these'
p2231
as(S'info'
p2232
tp2233
(lp2234
S'packet'
p2235
as(S'lights'
p2236
tp2237
(lp2238
S'went'
p2239
as(S'harmony'
p2240
tp2241
(lp2242
S"I'm"
p2243
as(S'make'
p2244
tp2245
(lp2246
g173
ag173
aS'him'
p2247
aS'out'
p2248
aS'us'
p2249
as(S'Others'
p2250
tp2251
(lp2252
S'followed'
p2253
as(g1005
tp2254
(lp2255
S'all'
p2256
as(S'bitter,'
p2257
tp2258
(lp2259
g1471
as(S'Anyone'
p2260
tp2261
(lp2262
S'who'
p2263
as(g385
tp2264
(lp2265
S'and'
p2266
aS'joy'
p2267
as(g1694
tp2268
(lp2269
S'color,'
p2270
as(S'die.'
p2271
tp2272
(lp2273
S'END'
p2274
as(S'learned'
p2275
tp2276
(lp2277
S'of'
p2278
as(g1929
tp2279
(lp2280
S'END'
p2281
as(S'other,'
p2282
tp2283
(lp2284
S'coiling'
p2285
as(S'moans,'
p2286
tp2287
(lp2288
S'grunts,'
p2289
as(g1830
tp2290
(lp2291
S'of'
p2292
as(S'Sometimes'
p2293
tp2294
(lp2295
S'everything'
p2296
aS'violently,'
p2297
as(S'society,'
p2298
tp2299
(lp2300
S'and'
p2301
as(g717
tp2302
(lp2303
S'END'
p2304
as(S'prey'
p2305
tp2306
(lp2307
S'out'
p2308
as(S'throughout'
p2309
tp2310
(lp2311
S'the'
p2312
aS'my'
p2313
as(S'hit'
p2314
tp2315
(lp2316
S'my'
p2317
aS'me'
p2318
as(g1996
tp2319
(lp2320
S'END'
p2321
as(S'express'
p2322
tp2323
(lp2324
S'the'
p2325
as(S'ayas'
p2326
tp2327
(lp2328
S'manifestation.'
p2329
as(S'inevitable,'
p2330
tp2331
(lp2332
g1843
as(S'up.'
p2333
tp2334
(lp2335
S'END'
p2336
aS'END'
p2337
as(S'BEGIN'
p2338
tp2339
(lp2340
S'NOW'
p2341
aS'NOW'
p2342
aS'NOW'
p2343
aS'NOW'
p2344
aS'NOW'
p2345
aS'NOW'
p2346
aS'NOW'
p2347
aS'NOW'
p2348
aS'NOW'
p2349
aS'NOW'
p2350
aS'NOW'
p2351
aS'NOW'
p2352
aS'NOW'
p2353
aS'NOW'
p2354
aS'NOW'
p2355
aS'NOW'
p2356
aS'NOW'
p2357
aS'NOW'
p2358
aS'NOW'
p2359
aS'NOW'
p2360
aS'NOW'
p2361
aS'NOW'
p2362
aS'NOW'
p2363
aS'NOW'
p2364
aS'NOW'
p2365
aS'NOW'
p2366
aS'NOW'
p2367
aS'NOW'
p2368
aS'NOW'
p2369
aS'NOW'
p2370
aS'NOW'
p2371
aS'NOW'
p2372
aS'NOW'
p2373
aS'NOW'
p2374
aS'NOW'
p2375
aS'NOW'
p2376
aS'NOW'
p2377
aS'NOW'
p2378
aS'NOW'
p2379
aS'NOW'
p2380
aS'NOW'
p2381
aS'NOW'
p2382
aS'NOW'
p2383
aS'NOW'
p2384
aS'NOW'
p2385
aS'NOW'
p2386
aS'NOW'
p2387
aS'NOW'
p2388
aS'NOW'
p2389
aS'NOW'
p2390
aS'NOW'
p2391
aS'NOW'
p2392
aS'NOW'
p2393
aS'NOW'
p2394
aS'NOW'
p2395
aS'NOW'
p2396
aS'NOW'
p2397
aS'NOW'
p2398
aS'NOW'
p2399
aS'NOW'
p2400
aS'NOW'
p2401
aS'NOW'
p2402
aS'NOW'
p2403
aS'NOW'
p2404
aS'NOW'
p2405
aS'NOW'
p2406
aS'NOW'
p2407
aS'NOW'
p2408
aS'NOW'
p2409
aS'NOW'
p2410
aS'NOW'
p2411
aS'NOW'
p2412
aS'NOW'
p2413
aS'NOW'
p2414
aS'NOW'
p2415
aS'NOW'
p2416
aS'NOW'
p2417
aS'NOW'
p2418
aS'NOW'
p2419
aS'NOW'
p2420
aS'NOW'
p2421
aS'NOW'
p2422
aS'NOW'
p2423
aS'NOW'
p2424
aS'NOW'
p2425
aS'NOW'
p2426
aS'NOW'
p2427
aS'NOW'
p2428
aS'NOW'
p2429
aS'NOW'
p2430
aS'NOW'
p2431
aS'NOW'
p2432
aS'NOW'
p2433
aS'NOW'
p2434
aS'NOW'
p2435
aS'NOW'
p2436
aS'NOW'
p2437
aS'NOW'
p2438
aS'NOW'
p2439
aS'NOW'
p2440
aS'NOW'
p2441
aS'NOW'
p2442
aS'NOW'
p2443
aS'NOW'
p2444
aS'NOW'
p2445
aS'NOW'
p2446
aS'NOW'
p2447
aS'NOW'
p2448
aS'NOW'
p2449
aS'NOW'
p2450
aS'NOW'
p2451
aS'NOW'
p2452
aS'NOW'
p2453
aS'NOW'
p2454
aS'NOW'
p2455
aS'NOW'
p2456
aS'NOW'
p2457
aS'NOW'
p2458
aS'NOW'
p2459
aS'NOW'
p2460
aS'NOW'
p2461
aS'NOW'
p2462
aS'NOW'
p2463
aS'NOW'
p2464
aS'NOW'
p2465
aS'NOW'
p2466
aS'NOW'
p2467
aS'NOW'
p2468
aS'NOW'
p2469
aS'NOW'
p2470
aS'NOW'
p2471
aS'NOW'
p2472
aS'NOW'
p2473
aS'NOW'
p2474
aS'NOW'
p2475
aS'NOW'
p2476
aS'NOW'
p2477
aS'NOW'
p2478
aS'NOW'
p2479
aS'NOW'
p2480
aS'NOW'
p2481
aS'NOW'
p2482
aS'NOW'
p2483
aS'NOW'
p2484
aS'NOW'
p2485
aS'NOW'
p2486
aS'NOW'
p2487
aS'NOW'
p2488
aS'NOW'
p2489
aS'NOW'
p2490
aS'NOW'
p2491
aS'NOW'
p2492
aS'NOW'
p2493
aS'NOW'
p2494
aS'NOW'
p2495
aS'NOW'
p2496
aS'NOW'
p2497
aS'NOW'
p2498
aS'NOW'
p2499
aS'NOW'
p2500
aS'NOW'
p2501
aS'NOW'
p2502
aS'NOW'
p2503
aS'NOW'
p2504
aS'NOW'
p2505
aS'NOW'
p2506
aS'NOW'
p2507
aS'NOW'
p2508
aS'NOW'
p2509
aS'NOW'
p2510
aS'NOW'
p2511
aS'NOW'
p2512
aS'NOW'
p2513
aS'NOW'
p2514
aS'NOW'
p2515
aS'NOW'
p2516
aS'NOW'
p2517
aS'NOW'
p2518
aS'NOW'
p2519
aS'NOW'
p2520
aS'NOW'
p2521
aS'NOW'
p2522
aS'NOW'
p2523
aS'NOW'
p2524
aS'NOW'
p2525
aS'NOW'
p2526
aS'NOW'
p2527
aS'NOW'
p2528
aS'NOW'
p2529
aS'NOW'
p2530
aS'NOW'
p2531
aS'NOW'
p2532
aS'NOW'
p2533
aS'NOW'
p2534
aS'NOW'
p2535
aS'NOW'
p2536
aS'NOW'
p2537
aS'NOW'
p2538
aS'NOW'
p2539
aS'NOW'
p2540
aS'NOW'
p2541
aS'NOW'
p2542
aS'NOW'
p2543
aS'NOW'
p2544
aS'NOW'
p2545
aS'NOW'
p2546
aS'NOW'
p2547
aS'NOW'
p2548
aS'NOW'
p2549
aS'NOW'
p2550
aS'NOW'
p2551
aS'NOW'
p2552
aS'NOW'
p2553
aS'NOW'
p2554
aS'NOW'
p2555
aS'NOW'
p2556
aS'NOW'
p2557
aS'NOW'
p2558
aS'NOW'
p2559
aS'NOW'
p2560
aS'NOW'
p2561
aS'NOW'
p2562
aS'NOW'
p2563
aS'NOW'
p2564
aS'NOW'
p2565
aS'NOW'
p2566
aS'NOW'
p2567
aS'NOW'
p2568
aS'NOW'
p2569
aS'NOW'
p2570
aS'NOW'
p2571
aS'NOW'
p2572
aS'NOW'
p2573
aS'NOW'
p2574
aS'NOW'
p2575
aS'NOW'
p2576
aS'NOW'
p2577
aS'NOW'
p2578
aS'NOW'
p2579
aS'NOW'
p2580
aS'NOW'
p2581
aS'NOW'
p2582
aS'NOW'
p2583
aS'NOW'
p2584
aS'NOW'
p2585
aS'NOW'
p2586
aS'NOW'
p2587
aS'NOW'
p2588
aS'NOW'
p2589
aS'NOW'
p2590
aS'NOW'
p2591
aS'NOW'
p2592
aS'NOW'
p2593
aS'NOW'
p2594
aS'NOW'
p2595
aS'NOW'
p2596
aS'NOW'
p2597
aS'NOW'
p2598
aS'NOW'
p2599
aS'NOW'
p2600
aS'NOW'
p2601
aS'NOW'
p2602
aS'NOW'
p2603
aS'NOW'
p2604
aS'NOW'
p2605
aS'NOW'
p2606
aS'NOW'
p2607
aS'NOW'
p2608
aS'NOW'
p2609
aS'NOW'
p2610
aS'NOW'
p2611
aS'NOW'
p2612
aS'NOW'
p2613
aS'NOW'
p2614
aS'NOW'
p2615
aS'NOW'
p2616
aS'NOW'
p2617
aS'NOW'
p2618
aS'NOW'
p2619
aS'NOW'
p2620
aS'NOW'
p2621
aS'NOW'
p2622
aS'NOW'
p2623
aS'NOW'
p2624
aS'NOW'
p2625
aS'NOW'
p2626
aS'NOW'
p2627
aS'NOW'
p2628
aS'NOW'
p2629
aS'NOW'
p2630
aS'NOW'
p2631
aS'NOW'
p2632
aS'NOW'
p2633
aS'NOW'
p2634
aS'NOW'
p2635
aS'NOW'
p2636
aS'NOW'
p2637
aS'NOW'
p2638
aS'NOW'
p2639
aS'NOW'
p2640
aS'NOW'
p2641
aS'NOW'
p2642
aS'NOW'
p2643
aS'NOW'
p2644
aS'NOW'
p2645
aS'NOW'
p2646
aS'NOW'
p2647
aS'NOW'
p2648
aS'NOW'
p2649
aS'NOW'
p2650
aS'NOW'
p2651
aS'NOW'
p2652
aS'NOW'
p2653
aS'NOW'
p2654
aS'NOW'
p2655
aS'NOW'
p2656
aS'NOW'
p2657
aS'NOW'
p2658
aS'NOW'
p2659
aS'NOW'
p2660
aS'NOW'
p2661
aS'NOW'
p2662
aS'NOW'
p2663
aS'NOW'
p2664
aS'NOW'
p2665
aS'NOW'
p2666
aS'NOW'
p2667
aS'NOW'
p2668
aS'NOW'
p2669
aS'NOW'
p2670
aS'NOW'
p2671
aS'NOW'
p2672
aS'NOW'
p2673
aS'NOW'
p2674
aS'NOW'
p2675
aS'NOW'
p2676
aS'NOW'
p2677
aS'NOW'
p2678
aS'NOW'
p2679
aS'NOW'
p2680
aS'NOW'
p2681
aS'NOW'
p2682
aS'NOW'
p2683
aS'NOW'
p2684
aS'NOW'
p2685
aS'NOW'
p2686
aS'NOW'
p2687
aS'NOW'
p2688
aS'NOW'
p2689
aS'NOW'
p2690
aS'NOW'
p2691
aS'NOW'
p2692
aS'NOW'
p2693
aS'NOW'
p2694
aS'NOW'
p2695
aS'NOW'
p2696
aS'NOW'
p2697
aS'NOW'
p2698
aS'NOW'
p2699
aS'NOW'
p2700
aS'NOW'
p2701
aS'NOW'
p2702
aS'NOW'
p2703
aS'NOW'
p2704
aS'NOW'
p2705
aS'NOW'
p2706
aS'NOW'
p2707
aS'NOW'
p2708
aS'NOW'
p2709
aS'NOW'
p2710
aS'NOW'
p2711
aS'NOW'
p2712
aS'NOW'
p2713
aS'NOW'
p2714
aS'NOW'
p2715
aS'NOW'
p2716
aS'NOW'
p2717
aS'NOW'
p2718
aS'NOW'
p2719
aS'NOW'
p2720
aS'NOW'
p2721
aS'NOW'
p2722
aS'NOW'
p2723
aS'NOW'
p2724
aS'NOW'
p2725
aS'NOW'
p2726
aS'NOW'
p2727
aS'NOW'
p2728
aS'NOW'
p2729
aS'NOW'
p2730
aS'NOW'
p2731
aS'NOW'
p2732
aS'NOW'
p2733
aS'NOW'
p2734
aS'NOW'
p2735
aS'NOW'
p2736
aS'NOW'
p2737
aS'NOW'
p2738
aS'NOW'
p2739
aS'NOW'
p2740
aS'NOW'
p2741
aS'NOW'
p2742
aS'NOW'
p2743
aS'NOW'
p2744
aS'NOW'
p2745
aS'NOW'
p2746
aS'NOW'
p2747
aS'NOW'
p2748
aS'NOW'
p2749
aS'NOW'
p2750
aS'NOW'
p2751
aS'NOW'
p2752
aS'NOW'
p2753
aS'NOW'
p2754
aS'NOW'
p2755
aS'NOW'
p2756
aS'NOW'
p2757
aS'NOW'
p2758
aS'NOW'
p2759
aS'NOW'
p2760
aS'NOW'
p2761
aS'NOW'
p2762
aS'NOW'
p2763
aS'NOW'
p2764
aS'NOW'
p2765
aS'NOW'
p2766
aS'NOW'
p2767
aS'NOW'
p2768
aS'NOW'
p2769
aS'NOW'
p2770
aS'NOW'
p2771
aS'NOW'
p2772
aS'NOW'
p2773
aS'NOW'
p2774
aS'NOW'
p2775
aS'NOW'
p2776
aS'NOW'
p2777
aS'NOW'
p2778
aS'NOW'
p2779
aS'NOW'
p2780
aS'NOW'
p2781
aS'NOW'
p2782
aS'NOW'
p2783
aS'NOW'
p2784
aS'NOW'
p2785
aS'NOW'
p2786
aS'NOW'
p2787
aS'NOW'
p2788
aS'NOW'
p2789
aS'NOW'
p2790
aS'NOW'
p2791
aS'NOW'
p2792
aS'NOW'
p2793
aS'NOW'
p2794
as(S'room,'
p2795
tp2796
(lp2797
S'blowing'
p2798
as(S'explained'
p2799
tp2800
(lp2801
S'that'
p2802
as(g1809
tp2803
(lp2804
S'strength'
p2805
as(S'into.'
p2806
tp2807
(lp2808
S'END'
p2809
as(S'counterpoint'
p2810
tp2811
(lp2812
S'to'
p2813
as(S'run'
p2814
tp2815
(lp2816
S'it'
p2817
aS'off'
p2818
aS'out'
p2819
as(S'owners.'
p2820
tp2821
(lp2822
S'END'
p2823
as(S'since'
p2824
tp2825
(lp2826
S'first'
p2827
as(S'catapulted'
p2828
tp2829
(lp2830
S'into'
p2831
as(S'flying'
p2832
tp2833
(lp2834
S'through'
p2835
as(S'safety'
p2836
tp2837
(lp2838
S'and'
p2839
as(S'traditional'
p2840
tp2841
(lp2842
S'sense'
p2843
as(g1964
tp2844
(lp2845
g35
as(g1530
tp2846
(lp2847
S'which'
p2848
as(S'reported'
p2849
tp2850
(lp2851
S'seeing'
p2852
as(S'was.'
p2853
tp2854
(lp2855
S'END'
p2856
aS'END'
p2857
aS'END'
p2858
as(S'realized'
p2859
tp2860
(lp2861
S'that'
p2862
aS'that'
p2863
aS'that'
p2864
aS'it'
p2865
aS'that'
p2866
aS'that'
p2867
aS'that'
p2868
aS'that'
p2869
aS'that'
p2870
aS'that'
p2871
aS'that'
p2872
aS'my'
p2873
ag35
aS'that'
p2874
ag35
ag35
as(S'human'
p2875
tp2876
(lp2877
S'qualities,'
p2878
aS'at'
p2879
aS'body'
p2880
as(S'swimming'
p2881
tp2882
(lp2883
S'in'
p2884
as(g1125
tp2885
(lp2886
S'so'
p2887
as(S'machine'
p2888
tp2889
(lp2890
g35
as(S'chest.'
p2891
tp2892
(lp2893
S'END'
p2894
as(S'group'
p2895
tp2896
(lp2897
S'that'
p2898
aS'of'
p2899
as(g1987
tp2900
(lp2901
S'other'
p2902
as(S'death.'
p2903
tp2904
(lp2905
S'END'
p2906
aS'END'
p2907
as(S'divine'
p2908
tp2909
(lp2910
S'presence'
p2911
aS'presence'
p2912
aS'presence'
p2913
aS'presence'
p2914
aS'presence'
p2915
aS'presence'
p2916
as(S'interest'
p2917
tp2918
(lp2919
S'in'
p2920
as(S'dozen'
p2921
tp2922
(lp2923
S'dogs'
p2924
aS'dogs'
p2925
as(S'ability'
p2926
tp2927
(lp2928
S'to'
p2929
as(S'moment'
p2930
tp2931
(lp2932
S'felt'
p2933
as(S'decided'
p2934
tp2935
(lp2936
S'to'
p2937
as(S'pain,'
p2938
tp2939
(lp2940
S'this'
p2941
as(g1815
tp2942
(lp2943
S'exotic,'
p2944
as(S'These'
p2945
tp2946
(lp2947
S'were'
p2948
as(S"terror??'"
p2949
tp2950
(lp2951
S'END'
p2952
as(g780
tp2953
(lp2954
S'in'
p2955
as(S'always,'
p2956
tp2957
(lp2958
g173
as(S'taper'
p2959
tp2960
(lp2961
S'off,'
p2962
as(S'fractal'
p2963
tp2964
(lp2965
S'and'
p2966
as(S'circle,'
p2967
tp2968
(lp2969
g35
as(S'realization'
p2970
tp2971
(lp2972
S'that'
p2973
as(S'about.'
p2974
tp2975
(lp2976
S'END'
p2977
aS'END'
p2978
as(S'First'
p2979
tp2980
(lp2981
S'of'
p2982
ag35
aS'of'
p2983
as(S'dont'
p2984
tp2985
(lp2986
S'really'
p2987
aS'know'
p2988
aS'feel'
p2989
as(S'expected'
p2990
tp2991
(lp2992
S'to'
p2993
aS'to'
p2994
as(S'fucking'
p2995
tp2996
(lp2997
S'depressing.'
p2998
as(S"couldn't"
p2999
tp3000
(lp3001
S'remember'
p3002
aS'identify.'
p3003
aS'believe'
p3004
as(S'Then'
p3005
tp3006
(lp3007
g35
ag173
aS'the'
p3008
ag35
ag35
aS'hyperspace'
p3009
aS'it'
p3010
aS'the'
p3011
ag35
aS'it'
p3012
ag35
aS'it'
p3013
ag35
as(S'exercise'
p3014
tp3015
(lp3016
S'on'
p3017
as(S'overwhelming,'
p3018
tp3019
(lp3020
S'even'
p3021
as(S'thing'
p3022
tp3023
(lp3024
S'happened.'
p3025
aS'worked'
p3026
aS'that'
p3027
aS'showing'
p3028
ag35
as(S'feathers'
p3029
tp3030
(lp3031
S'and'
p3032
as(S'defense'
p3033
tp3034
(lp3035
S'patterns'
p3036
as(S'old'
p3037
tp3038
(lp3039
g373
aS'brittle'
p3040
as(S'glow,'
p3041
tp3042
(lp3043
S'as'
p3044
as(S'demons'
p3045
tp3046
(lp3047
S'and'
p3048
as(S'times'
p3049
tp3050
(lp3051
S'easier'
p3052
aS'unsuccessfully.'
p3053
aS'to'
p3054
as(S'minutes.'
p3055
tp3056
(lp3057
S'END'
p3058
as(g1083
tp3059
(lp3060
S'END'
p3061
as(g918
tp3062
(lp3063
S'shaken'
p3064
ag1839
as(S'3rd'
p3065
tp3066
(lp3067
S'of'
p3068
as(S'Aya??'
p3069
tp3070
(lp3071
S'END'
p3072
as(S'profound'
p3073
tp3074
(lp3075
S'experience'
p3076
aS'realizations.'
p3077
aS'even'
p3078
as(S'amount'
p3079
tp3080
(lp3081
S'of'
p3082
aS'of'
p3083
as(S'back'
p3084
tp3085
(lp3086
S'to'
p3087
aS'to'
p3088
aS'to'
p3089
aS'to'
p3090
aS'to'
p3091
aS'to'
p3092
aS'up'
p3093
aS'to'
p3094
aS'an'
p3095
aS'to'
p3096
aS'here'
p3097
as(S'arts.'
p3098
tp3099
(lp3100
S'END'
p3101
aS'END'
p3102
as(S'waves,'
p3103
tp3104
(lp3105
S'and'
p3106
as(S'instructions'
p3107
tp3108
(lp3109
S'about'
p3110
as(S'body'
p3111
tp3112
(lp3113
S'experience,'
p3114
aS'slowly'
p3115
aS'after'
p3116
aS'was'
p3117
aS'as'
p3118
aS'was'
p3119
aS'and'
p3120
aS'moving'
p3121
aS'is'
p3122
aS'get'
p3123
aS'and'
p3124
aS'and'
p3125
aS'felt'
p3126
aS'became'
p3127
as(S'highest'
p3128
tp3129
(lp3130
S'order,'
p3131
as(S'speed'
p3132
tp3133
(lp3134
S'up,'
p3135
as(S'channels'
p3136
tp3137
(lp3138
S'were'
p3139
as(S'extraordinary'
p3140
tp3141
(lp3142
S'visual'
p3143
as(S'cant'
p3144
tp3145
(lp3146
S'waste'
p3147
aS'use'
p3148
aS'believe'
p3149
aS'even'
p3150
aS'sleep'
p3151
as(S'screwed'
p3152
tp3153
(lp3154
S'when'
p3155
as(S'moving'
p3156
tp3157
(lp3158
S'drops'
p3159
aS'and'
p3160
aS'around'
p3161
aS'into'
p3162
aS'prayer'
p3163
aS'things'
p3164
as(S'than.'
p3165
tp3166
(lp3167
S'END'
p3168
as(g2341
tp3169
(lp3170
g35
ag35
ag35
aS'At'
p3171
aS'We'
p3172
ag35
ag35
aS'Ayahuasca'
p3173
ag1387
aS'He'
p3174
aS'This'
p3175
aS'He'
p3176
aS'Tobacco'
p3177
aS'He'
p3178
aS'He'
p3179
aS'He'
p3180
aS'He'
p3181
aS'It'
p3182
ag35
aS'The'
p3183
aS'It'
p3184
ag532
aS'There'
p3185
ag213
ag3005
aS'They'
p3186
ag35
aS'She'
p3187
aS'Then'
p3188
aS'The'
p3189
aS'He'
p3190
aS'Its'
p3191
aS'Even'
p3192
aS'It'
p3193
ag35
aS'There'
p3194
aS'Ayahuasca'
p3195
aS'The'
p3196
aS'He'
p3197
aS'The'
p3198
aS'The'
p3199
aS'My'
p3200
ag596
ag35
aS'Its'
p3201
aS'During'
p3202
aS'However,'
p3203
aS'Some'
p3204
ag35
aS'Many'
p3205
aS'Some'
p3206
ag35
aS'Some'
p3207
aS'At'
p3208
aS'But'
p3209
aS'They'
p3210
aS'However,'
p3211
aS'Its'
p3212
aS'At'
p3213
aS'It'
p3214
ag35
aS'That'
p3215
aS'But'
p3216
aS'It'
p3217
ag35
aS'However,'
p3218
aS'He'
p3219
ag35
aS'In'
p3220
ag35
ag35
ag785
aS'In'
p3221
aS'They'
p3222
aS'The'
p3223
aS'Then'
p3224
ag35
aS'This'
p3225
aS'What'
p3226
aS'Where'
p3227
aS'Why'
p3228
ag35
ag35
aS'Visions'
p3229
aS'However,'
p3230
ag35
aS'Then'
p3231
ag35
ag35
aS'At'
p3232
ag35
aS'At'
p3233
aS'Communication'
p3234
aS'That'
p3235
aS'This'
p3236
ag35
aS'The'
p3237
aS'Upon'
p3238
aS'The'
p3239
ag35
aS'It'
p3240
aS'It'
p3241
aS'This'
p3242
ag35
ag35
ag35
ag35
ag35
aS'There'
p3243
aS'Very'
p3244
ag35
ag737
aS'But'
p3245
ag35
ag35
ag35
aS'But'
p3246
ag35
aS'The'
p3247
aS'What'
p3248
aS'Was'
p3249
ag1401
ag35
aS'However,'
p3250
aS'Ayahuasca'
p3251
aS'The'
p3252
ag35
ag35
aS'Its'
p3253
aS'Within'
p3254
aS'My'
p3255
ag35
ag35
aS'Even'
p3256
aS'At'
p3257
ag35
ag35
aS'We'
p3258
aS'It'
p3259
aS'Whats'
p3260
aS'Its'
p3261
aS'Reflecting'
p3262
ag2979
ag35
ag35
ag35
ag35
ag35
aS'Ive'
p3263
aS'Im'
p3264
aS'There'
p3265
aS'We'
p3266
ag35
aS'It'
p3267
ag35
aS'My'
p3268
aS'The'
p3269
aS'Afterwards,'
p3270
aS'Luckily,'
p3271
ag35
ag35
aS'Some'
p3272
aS'One'
p3273
aS'and'
p3274
aS'J'
p3275
aS'She'
p3276
ag35
ag35
aS'It'
p3277
ag35
aS'Then'
p3278
ag35
aS'It'
p3279
ag2173
aS'The'
p3280
aS'They'
p3281
aS'Then,'
p3282
aS'They'
p3283
aS'and'
p3284
aS'Then'
p3285
aS'The'
p3286
aS'Each'
p3287
aS'Anyways,'
p3288
aS'It'
p3289
aS'Then'
p3290
aS'It'
p3291
aS'As'
p3292
aS'By'
p3293
ag35
aS'It'
p3294
ag35
aS'It'
p3295
ag35
aS'As'
p3296
aS'We'
p3297
aS'She'
p3298
ag35
aS'She'
p3299
ag35
ag35
aS'REALLY!?!?'
p3300
ag35
aS'She'
p3301
ag35
aS'She'
p3302
aS'We'
p3303
aS'Then,'
p3304
ag35
aS'Actually,'
p3305
ag35
ag35
aS'Then'
p3306
aS'Holy'
p3307
aS'It'
p3308
aS'Lights'
p3309
aS'They'
p3310
aS'They'
p3311
aS'They'
p3312
aS'The'
p3313
aS'They'
p3314
aS'Apparently'
p3315
aS'This'
p3316
ag189
aS'After'
p3317
aS'Meanwhile,'
p3318
ag35
ag278
aS'Soul'
p3319
ag35
ag35
ag35
ag35
ag35
aS'First'
p3320
aS'Then'
p3321
ag35
ag35
aS'Then,'
p3322
aS'The'
p3323
aS'It'
p3324
aS'The'
p3325
ag35
aS'The'
p3326
aS'It'
p3327
aS'It'
p3328
aS'It'
p3329
aS'The'
p3330
aS'Then'
p3331
aS'Back'
p3332
ag35
aS'After'
p3333
ag35
aS'It'
p3334
ag35
aS'With'
p3335
aS'Then'
p3336
ag1635
aS'Then'
p3337
aS'Between'
p3338
aS'Never'
p3339
aS'Each'
p3340
aS'This'
p3341
aS'First'
p3342
ag35
aS'If'
p3343
aS'Anyways,'
p3344
aS'It'
p3345
aS'Meanwhile,'
p3346
aS'There'
p3347
aS'It'
p3348
aS'The'
p3349
aS'Regularly,'
p3350
aS'As'
p3351
aS'Eventually,'
p3352
ag35
aS'After'
p3353
ag35
aS'It'
p3354
aS'The'
p3355
ag35
aS'Its'
p3356
aS'You'
p3357
aS'So,'
p3358
aS'And'
p3359
aS'Then'
p3360
ag2293
aS'At'
p3361
aS'This'
p3362
aS'Further'
p3363
ag35
aS'Said'
p3364
aS'Well,'
p3365
ag35
aS'After'
p3366
aS'My'
p3367
ag35
aS'They'
p3368
aS'The'
p3369
aS'When'
p3370
aS'My'
p3371
aS'All'
p3372
ag35
aS'Actually,'
p3373
aS'However,'
p3374
aS'Oh'
p3375
aS'Anyways,'
p3376
ag35
aS'To'
p3377
aS'To'
p3378
ag2260
ag860
aS'And'
p3379
aS'May'
p3380
aS'When'
p3381
ag35
aS'Do'
p3382
ag35
aS'It'
p3383
aS'Upon'
p3384
aS'We'
p3385
aS'We'
p3386
aS'We'
p3387
aS'It'
p3388
ag35
aS'When'
p3389
aS'Several'
p3390
aS'Within'
p3391
aS'It'
p3392
aS'The'
p3393
aS'The'
p3394
aS'Crazy'
p3395
aS'It'
p3396
aS'The'
p3397
aS'The'
p3398
aS'Approximately'
p3399
aS'Darkness'
p3400
ag35
aS'My'
p3401
ag35
ag35
aS'Is'
p3402
aS'My'
p3403
ag35
aS'My'
p3404
ag35
ag35
ag35
aS'Light'
p3405
aS'What'
p3406
ag35
aS'The'
p3407
ag35
aS'As'
p3408
ag35
aS'My'
p3409
ag35
ag35
ag35
ag35
aS"I'm"
p3410
ag35
ag35
aS'How'
p3411
ag35
ag35
ag35
ag35
ag35
ag35
ag35
aS'It'
p3412
aS'Finally,'
p3413
ag35
ag35
aS'He'
p3414
ag35
aS'The'
p3415
ag35
aS'As'
p3416
aS'Every'
p3417
aS'It'
p3418
ag35
ag1309
aS'Finally,'
p3419
aS'Before'
p3420
aS'It'
p3421
ag35
aS'The'
p3422
aS'Being'
p3423
ag35
aS'Their'
p3424
aS'My'
p3425
aS'The'
p3426
ag35
aS'Other'
p3427
aS'Sometimes'
p3428
aS'Every'
p3429
ag35
ag35
aS'Small'
p3430
ag35
aS'People'
p3431
aS'The'
p3432
ag35
aS'One'
p3433
aS'At'
p3434
aS'To'
p3435
ag35
ag35
aS'It'
p3436
aS'Later,'
p3437
aS'She'
p3438
ag35
ag35
ag35
aS'Aya'
p3439
aS"That's"
p3440
aS'My'
p3441
ag1761
ag35
aS'Animal'
p3442
aS'It'
p3443
aS'Love.'
p3444
aS'Love'
p3445
aS'Everyone'
p3446
aS'Our'
p3447
aS'It'
p3448
aS'Her'
p3449
ag35
ag668
aS'At'
p3450
ag35
ag35
aS'Aya'
p3451
aS'She'
p3452
aS'When'
p3453
ag35
aS'With'
p3454
ag35
ag35
ag2250
aS'The'
p3455
ag35
ag2945
ag35
aS'Many'
p3456
aS'Several'
p3457
ag2177
ag860
ag860
aS'Another'
p3458
ag35
ag35
aS'Namaste.'
p3459
as(g781
tp3460
(lp3461
S'the'
p3462
as(g3335
tp3463
(lp3464
S'each'
p3465
aS'joy'
p3466
as(S'thankfulness.'
p3467
tp3468
(lp3469
S'END'
p3470
as(S'avidly'
p3471
tp3472
(lp3473
S'look'
p3474
as(S'Aya'
p3475
tp3476
(lp3477
S'Herself,'
p3478
aS'finally'
p3479
aS'continued'
p3480
aS'tell'
p3481
as(g3319
tp3482
(lp3483
S'marriage.'
p3484
as(g2235
tp3485
(lp3486
S'from'
p3487
as(g865
tp3488
(lp3489
S'wonderful'
p3490
as(S'rhythm'
p3491
tp3492
(lp3493
S'of'
p3494
as(S'noises'
p3495
tp3496
(lp3497
S'started'
p3498
as(g196
tp3499
(lp3500
S'by'
p3501
as(g7
tp3502
(lp3503
S'END'
p3504
as(S'facet'
p3505
tp3506
(lp3507
S'of'
p3508
as(g809
tp3509
(lp3510
S'and'
p3511
as(S'novice'
p3512
tp3513
(lp3514
S'in'
p3515
as(S'river.'
p3516
tp3517
(lp3518
S'END'
p3519
as(g1596
tp3520
(lp3521
S'but'
p3522
ag35
ag35
as(S'medium.'
p3523
tp3524
(lp3525
S'END'
p3526
as(S'even'
p3527
tp3528
(lp3529
S'have'
p3530
aS'on'
p3531
aS'than'
p3532
aS'begin'
p3533
ag856
aS'have'
p3534
aS'though'
p3535
aS'made'
p3536
as(g222
tp3537
(lp3538
S'neon'
p3539
as(S'noise'
p3540
tp3541
(lp3542
S'grew'
p3543
as(S'unconditional'
p3544
tp3545
(lp3546
S'love'
p3547
as(S'communication'
p3548
tp3549
(lp3550
S'that'
p3551
as(S'look'
p3552
tp3553
(lp3554
S'like'
p3555
aS'over'
p3556
aS'at.'
p3557
aS'forward'
p3558
as(g727
tp3559
(lp3560
S'END'
p3561
as(S'aliens.'
p3562
tp3563
(lp3564
S'END'
p3565
as(g45
tp3566
(lp3567
S'friends'
p3568
as(S'drank'
p3569
tp3570
(lp3571
S'more.'
p3572
aS'the'
p3573
aS'another'
p3574
as(S'it.'
p3575
tp3576
(lp3577
S'END'
p3578
aS'END'
p3579
aS'END'
p3580
aS'END'
p3581
aS'END'
p3582
aS'END'
p3583
aS'END'
p3584
aS'END'
p3585
as(S'than'
p3586
tp3587
(lp3588
S'anything'
p3589
ag1577
aS'my'
p3590
ag35
aS'that'
p3591
aS'that.'
p3592
as(S'sun'
p3593
tp3594
(lp3595
S'breaking'
p3596
as(S'numb,'
p3597
tp3598
(lp3599
S'and'
p3600
as(S"'What"
p3601
tp3602
(lp3603
S'in'
p3604
as(S'family,'
p3605
tp3606
(lp3607
S'and'
p3608
as(g3358
tp3609
(lp3610
S'anyway,'
p3611
as(S'terror'
p3612
tp3613
(lp3614
S'as'
p3615
as(S'Earth'
p3616
tp3617
(lp3618
S'was'
p3619
aS'have'
p3620
as(g1016
tp3621
(lp3622
S'experience'
p3623
as(S'gift,'
p3624
tp3625
(lp3626
S'and'
p3627
as(g1941
tp3628
(lp3629
S'arts'
p3630
aS'arts'
p3631
ag3098
aS'arts,'
p3632
aS'arts.'
p3633
as(S'laughing...the'
p3634
tp3635
(lp3636
S'rest'
p3637
as(S'so,'
p3638
tp3639
(lp3640
S'it'
p3641
aS'the'
p3642
ag35
aS'my'
p3643
as(S'infinite'
p3644
tp3645
(lp3646
S'amount'
p3647
ag2963
as(S'swirling'
p3648
tp3649
(lp3650
g1154
as(S'frogs.'
p3651
tp3652
(lp3653
S'END'
p3654
as(g1298
tp3655
(lp3656
S'on'
p3657
as(S'glad'
p3658
tp3659
(lp3660
S'he'
p3661
as(S'miffed'
p3662
tp3663
(lp3664
S'at'
p3665
as(S'jungles'
p3666
tp3667
(lp3668
S'and'
p3669
as(S'everything.'
p3670
tp3671
(lp3672
S'END'
p3673
as(S'perfect'
p3674
tp3675
(lp3676
S'sense'
p3677
aS'love'
p3678
aS'condition'
p3679
aS'this'
p3680
as(g992
tp3681
(lp3682
S'would'
p3683
as(S'may'
p3684
tp3685
(lp3686
g326
ag1643
as(S'anyone.'
p3687
tp3688
(lp3689
S'END'
p3690
as(g2054
tp3691
(lp3692
S'END'
p3693
as(g3262
tp3694
(lp3695
S'upon'
p3696
as(S'unfold,'
p3697
tp3698
(lp3699
g35
as(g3249
tp3700
(lp3701
g35
as(S'interesting'
p3702
tp3703
(lp3704
S'visions'
p3705
as(S"don't"
p3706
tp3707
(lp3708
S'worry'
p3709
aS'stop,'
p3710
aS'ever'
p3711
as(S'slowed'
p3712
tp3713
(lp3714
S'down.'
p3715
as(g1236
tp3716
(lp3717
S'in'
p3718
as(S'phenomenon.'
p3719
tp3720
(lp3721
S'END'
p3722
as(S'giggling'
p3723
tp3724
(lp3725
S'laughter.'
p3726
as(S'self,'
p3727
tp3728
(lp3729
S'was'
p3730
as(S"'Where"
p3731
tp3732
(lp3733
S'on'
p3734
as(S'eerie'
p3735
tp3736
(lp3737
g3041
as(S'without'
p3738
tp3739
(lp3740
g173
aS'the'
p3741
aS'an'
p3742
as(S'friends,'
p3743
tp3744
(lp3745
g1601
as(g3227
tp3746
(lp3747
S'did'
p3748
as(S'blew'
p3749
tp3750
(lp3751
S'over'
p3752
aS'open'
p3753
aS'open'
p3754
as(S'have.'
p3755
tp3756
(lp3757
S'END'
p3758
as(S'his'
p3759
tp3760
(lp3761
g410
aS'lip'
p3762
ag765
aS'wife'
p3763
aS'beautiful'
p3764
aS'private'
p3765
as(S'whats'
p3766
tp3767
(lp3768
S'to'
p3769
as(g617
tp3770
(lp3771
S'in'
p3772
as(S'bring'
p3773
tp3774
(lp3775
S'my'
p3776
as(S'rushing'
p3777
tp3778
(lp3779
S'back'
p3780
as(g1918
tp3781
(lp3782
S'to'
p3783
as(S'across'
p3784
tp3785
(lp3786
S'my'
p3787
aS'my'
p3788
aS'my'
p3789
aS'the'
p3790
aS'the'
p3791
as(S'how'
p3792
tp3793
(lp3794
S'can'
p3795
aS'all'
p3796
aS'quickly'
p3797
ag35
aS'to'
p3798
aS'long'
p3799
aS'things'
p3800
aS'long'
p3801
aS'to'
p3802
aS'to'
p3803
aS'long'
p3804
aS'the'
p3805
aS'we'
p3806
as(S'stop'
p3807
tp3808
(lp3809
S'to'
p3810
ag3634
as(g1820
tp3811
(lp3812
S'of'
p3813
aS'of'
p3814
aS'of'
p3815
aS'of'
p3816
aS'of'
p3817
as(S'weighted'
p3818
tp3819
(lp3820
S'down'
p3821
as(S'sea,'
p3822
tp3823
(lp3824
S'our'
p3825
as(g1825
tp3826
(lp3827
S'for'
p3828
as(S'preparing'
p3829
tp3830
(lp3831
S'for'
p3832
as(g3726
tp3833
(lp3834
S'END'
p3835
as(S'myself'
p3836
tp3837
(lp3838
S'tuned'
p3839
ag1625
aS'become'
p3840
aS'in'
p3841
ag417
ag35
as(g3191
tp3842
(lp3843
S'actually'
p3844
ag353
aS'just'
p3845
aS'amazing'
p3846
ag2995
aS'like'
p3847
as(S'mean'
p3848
tp3849
(lp3850
S'they'
p3851
as(S'knew'
p3852
tp3853
(lp3854
g988
aS'that'
p3855
aS'that'
p3856
aS'that'
p3857
as(g2153
tp3858
(lp3859
g3586
as(S'una'
p3860
tp3861
(lp3862
S'droga.'
p3863
as(g3413
tp3864
(lp3865
S'at'
p3866
aS'the'
p3867
as(S'follow.'
p3868
tp3869
(lp3870
S'END'
p3871
as(S'doing.'
p3872
tp3873
(lp3874
S'END'
p3875
as(S'goes'
p3876
tp3877
(lp3878
S'to'
p3879
as(g1287
tp3880
(lp3881
S'END'
p3882
aS'END'
p3883
as(S'opportunity'
p3884
tp3885
(lp3886
S'to'
p3887
as(S'fruit,'
p3888
tp3889
(lp3890
g600
as(S'fractals'
p3891
tp3892
(lp3893
S'actually,'
p3894
aS'in'
p3895
as(S'loved,'
p3896
tp3897
(lp3898
S'people'
p3899
as(S'heard'
p3900
tp3901
(lp3902
S'before,'
p3903
aS'this'
p3904
aS'that'
p3905
aS'her'
p3906
aS'Aya'
p3907
as(S'connected'
p3908
tp3909
(lp3910
S'by'
p3911
aS'to'
p3912
aS'soul'
p3913
aS'in'
p3914
aS'to'
p3915
as(S'similar'
p3916
tp3917
(lp3918
S'to'
p3919
as(S'exclaimed,'
p3920
tp3921
(lp3922
S"'Come"
p3923
as(g3543
tp3924
(lp3925
S'greater,'
p3926
aS'brighter.'
p3927
as(S'talk'
p3928
tp3929
(lp3930
S'to'
p3931
aS'about'
p3932
aS'to'
p3933
aS'for'
p3934
as(S'certain'
p3935
tp3936
(lp3937
S'that'
p3938
aS'gastrointestinal'
p3939
as(S'their'
p3940
tp3941
(lp3942
S'own'
p3943
ag1198
ag369
ag2820
ag227
aS'wedding'
p3944
ag2298
aS'built'
p3945
aS'drink,'
p3946
aS'intensity.'
p3947
aS'mouth'
p3948
aS'way'
p3949
ag3045
aS'hearts'
p3950
aS'visions'
p3951
as(g709
tp3952
(lp3953
S'contact'
p3954
as(S'wrap'
p3955
tp3956
(lp3957
S'my'
p3958
aS'around'
p3959
as(S'asana'
p3960
tp3961
(lp3962
S'deep'
p3963
aS'in'
p3964
as(S'hearing'
p3965
tp3966
(lp3967
S"'I"
p3968
as(S'over.'
p3969
tp3970
(lp3971
S'END'
p3972
aS'END'
p3973
aS'END'
p3974
aS'END'
p3975
aS'END'
p3976
as(S"medicine's"
p3977
tp3978
(lp3979
S'effects,'
p3980
as(S'special'
p3981
tp3982
(lp3983
S'and'
p3984
as(S'bathroom'
p3985
tp3986
(lp3987
S'to'
p3988
as(S'believing'
p3989
tp3990
(lp3991
S'nothing'
p3992
as(S'offering'
p3993
tp3994
(lp3995
S'me'
p3996
as(S'white'
p3997
tp3998
(lp3999
S'light.'
p4000
aS'light'
p4001
aS'shimmering'
p4002
as(S'bliss.'
p4003
tp4004
(lp4005
S'END'
p4006
as(S'feel'
p4007
tp4008
(lp4009
S'wonderful.'
p4010
ag186
aS'extremely'
p4011
aS'the'
p4012
aS'my'
p4013
aS'this'
p4014
aS'like'
p4015
aS'much'
p4016
aS'as'
p4017
aS'the'
p4018
aS'wonderful.'
p4019
aS'that'
p4020
aS'that'
p4021
ag173
aS'safer.'
p4022
aS'the'
p4023
aS'it'
p4024
aS'the'
p4025
aS'grateful'
p4026
as(g693
tp4027
(lp4028
S'in'
p4029
as(S'animals'
p4030
tp4031
(lp4032
S'is'
p4033
as(S'front'
p4034
tp4035
(lp4036
S'of'
p4037
aS'of'
p4038
aS'of'
p4039
aS'of'
p4040
as(g939
tp4041
(lp4042
S'END'
p4043
as(g1276
tp4044
(lp4045
S'END'
p4046
as(g2878
tp4047
(lp4048
S'which'
p4049
as(S'altitude'
p4050
tp4051
(lp4052
S'sickness'
p4053
as(g3447
tp4054
(lp4055
S'female'
p4056
as(S'hook'
p4057
tp4058
(lp4059
S'into'
p4060
as(S'soul'
p4061
tp4062
(lp4063
S'had'
p4064
aS'situation.'
p4065
aS'for'
p4066
aS'marriage.'
p4067
as(S'understand'
p4068
tp4069
(lp4070
S'the'
p4071
aS'what'
p4072
aS'the'
p4073
aS'and'
p4074
aS'and'
p4075
as(g3338
tp4076
(lp4077
S'each'
p4078
as(S'romantic'
p4079
tp4080
(lp4081
S'by'
p4082
as(S'work.'
p4083
tp4084
(lp4085
S'END'
p4086
as(S'parts'
p4087
tp4088
(lp4089
S'of'
p4090
as(S'much,'
p4091
tp4092
(lp4093
S'thanks'
p4094
as(S'bad'
p4095
tp4096
(lp4097
g4050
as(S'coiled'
p4098
tp4099
(lp4100
S'souls,'
p4101
as(S'wanted'
p4102
tp4103
(lp4104
S'to'
p4105
aS'to'
p4106
as(S'singing.'
p4107
tp4108
(lp4109
S'END'
p4110
as(S'saying:'
p4111
tp4112
(lp4113
S'Ayahuasca'
p4114
as(S'forget'
p4115
tp4116
(lp4117
S'what'
p4118
aS'what'
p4119
aS'that.'
p4120
as(S'possibly'
p4121
tp4122
(lp4123
S'felt,'
p4124
as(S'signed'
p4125
tp4126
(lp4127
S'up'
p4128
as(S'sorts'
p4129
tp4130
(lp4131
S'of'
p4132
as(g173
tp4133
(lp4134
S'stronger'
p4135
aS'fairly'
p4136
aS'conversation'
p4137
aS'candle'
p4138
ag475
ag2208
ag1831
aS'presence,'
p4139
aS'woman'
p4140
ag357
ag1217
aS'shaman.'
p4141
aS'novel'
p4142
aS'very'
p4143
aS'role'
p4144
aS'cool'
p4145
aS'little'
p4146
aS'little'
p4147
aS'few'
p4148
aS'huge'
p4149
aS'dozen'
p4150
aS'nob'
p4151
aS'thought'
p4152
aS'paradox,'
p4153
aS'thought'
p4154
aS'deep'
p4155
aS'fundamental'
p4156
aS'greater'
p4157
ag3997
aS'description'
p4158
aS'calm'
p4159
aS'few'
p4160
aS'perception'
p4161
aS'daily'
p4162
aS'purpose,'
p4163
ag834
aS'wish'
p4164
aS'little'
p4165
aS'huge'
p4166
aS'computer'
p4167
aS'bit'
p4168
aS'computer,'
p4169
aS'huge'
p4170
aS'language'
p4171
aS'honeymoon'
p4172
aS'whole'
p4173
aS'rock'
p4174
aS'the'
p4175
aS'beginner'
p4176
aS'good'
p4177
aS'while,'
p4178
aS'tree'
p4179
aS'warm,'
p4180
aS'greater'
p4181
ag1749
ag584
aS'residential'
p4182
aS'bit'
p4183
aS'deep'
p4184
aS'pure'
p4185
aS'new'
p4186
aS'series'
p4187
aS'kick'
p4188
aS'form'
p4189
aS'moving'
p4190
aS'little'
p4191
aS'very'
p4192
ag2810
aS'period'
p4193
aS'while'
p4194
aS'lot'
p4195
aS'little'
p4196
aS'good'
p4197
aS'2oz'
p4198
aS'very'
p4199
aS'small'
p4200
ag793
aS'whirring'
p4201
aS'wild'
p4202
aS'very'
p4203
aS'very'
p4204
aS'skirt'
p4205
aS'spear'
p4206
aS'very'
p4207
aS'kill'
p4208
aS'little.'
p4209
aS'path'
p4210
aS'rival'
p4211
ag3512
aS'surge'
p4212
aS'very'
p4213
aS'strong'
p4214
aS'clear'
p4215
aS'result'
p4216
aS'tangible'
p4217
aS'being'
p4218
aS'sense'
p4219
aS'challenge,'
p4220
aS'cigarette'
p4221
aS'sense'
p4222
ag2930
aS'group'
p4223
aS'sacrament'
p4224
ag3624
as(S'packs;'
p4225
tp4226
(lp4227
S'they'
p4228
as(S'was'
p4229
tp4230
(lp4231
g2330
ag3829
aS'pleased'
p4232
ag3935
aS'surrounded'
p4233
aS'going'
p4234
aS'staring'
p4235
aS'there'
p4236
ag1442
aS'consistently'
p4237
aS'that'
p4238
aS'ridiculous,'
p4239
ag3969
aS'it.'
p4240
ag173
ag173
ag173
aS'about'
p4241
aS'waiting'
p4242
aS'immediately'
p4243
ag875
aS'aware'
p4244
aS'experiencing'
p4245
aS'at'
p4246
ag173
aS'finite.'
p4247
aS'so'
p4248
aS'experiencing'
p4249
aS'the'
p4250
aS'omnipresent,'
p4251
ag3908
aS'crouched'
p4252
aS'also'
p4253
aS'filled'
p4254
aS'both'
p4255
aS'alive,'
p4256
aS'still'
p4257
aS'like.'
p4258
aS'experiencing'
p4259
aS'there.'
p4260
aS'time'
p4261
aS'almost'
p4262
aS'completely'
p4263
aS'difficult'
p4264
aS'too'
p4265
aS'bringing'
p4266
aS'like'
p4267
aS'in'
p4268
aS'ten'
p4269
aS'quite'
p4270
aS'some'
p4271
aS'like'
p4272
aS'more'
p4273
ag2107
ag173
aS'looking'
p4274
aS'very'
p4275
aS'like'
p4276
aS'like'
p4277
aS'surprised.'
p4278
aS'the'
p4279
ag1330
aS'totally'
p4280
aS'being'
p4281
aS'still'
p4282
ag1194
aS'totally'
p4283
aS'about'
p4284
aS'thankful'
p4285
aS'thankful'
p4286
aS'the'
p4287
aS'pleased'
p4288
aS'in'
p4289
aS'extremely'
p4290
aS'very'
p4291
ag173
aS'precise'
p4292
aS'all'
p4293
aS'going'
p4294
aS'the'
p4295
ag178
aS'ask.'
p4296
aS'like'
p4297
aS'on'
p4298
aS'the'
p4299
aS'so'
p4300
aS'with'
p4301
aS'like'
p4302
aS'being'
p4303
aS'blocked.'
p4304
aS'that'
p4305
ag173
aS'starting'
p4306
ag3475
aS'still'
p4307
aS'pretty'
p4308
aS'still'
p4309
ag35
aS'the'
p4310
aS'in.'
p4311
ag28
aS'sat'
p4312
aS'like'
p4313
aS'done'
p4314
aS'led'
p4315
aS'swallowed'
p4316
aS'being'
p4317
aS'strong'
p4318
aS'spent'
p4319
aS'incredibly'
p4320
aS'the'
p4321
aS'simply'
p4322
aS'brilliant.'
p4323
aS'just'
p4324
aS'extremely'
p4325
aS'to'
p4326
aS'fierce'
p4327
aS'everywhere'
p4328
ag173
aS'like'
p4329
aS'laying'
p4330
aS'done'
p4331
aS'in'
p4332
aS'said'
p4333
aS'time'
p4334
aS'no'
p4335
aS'open'
p4336
aS'over.'
p4337
aS'shared'
p4338
aS'just...hanging'
p4339
as(g4002
tp4340
(lp4341
S'lines'
p4342
as(g1162
tp4343
(lp4344
S'that'
p4345
as(S'time.'
p4346
tp4347
(lp4348
S'END'
p4349
aS'END'
p4350
aS'END'
p4351
aS'END'
p4352
aS'END'
p4353
as(S'prepares'
p4354
tp4355
(lp4356
S'you'
p4357
as(S'bursts'
p4358
tp4359
(lp4360
S'of'
p4361
as(g3115
tp4362
(lp4363
S'became'
p4364
ag2959
aS'started'
p4365
as(S'bit'
p4366
tp4367
(lp4368
S'about'
p4369
aS'in'
p4370
aS'has'
p4371
ag1686
as(g1078
tp4372
(lp4373
S'END'
p4374
as(S'melodies'
p4375
tp4376
(lp4377
g537
as(g3200
tp4378
(lp4379
S'visions'
p4380
aS'strong'
p4381
aS'world'
p4382
aS'wife'
p4383
aS'accelerated'
p4384
aS'visions'
p4385
aS'body'
p4386
aS'sense'
p4387
aS'head'
p4388
aS'intuition,'
p4389
aS'intention'
p4390
as(g3923
tp4391
(lp4392
S'look!'
p4393
as(g1925
tp4394
(lp4395
S'it'
p4396
as(S'driven'
p4397
tp4398
(lp4399
S'it'
p4400
aS'and'
p4401
as(S'just'
p4402
tp4403
(lp4404
g788
aS'their'
p4405
aS'tell.'
p4406
aS'be'
p4407
aS'one'
p4408
aS'interacted'
p4409
aS'drink'
p4410
aS'was.'
p4411
aS'slowly'
p4412
aS'felt.'
p4413
aS'have'
p4414
aS'squealed'
p4415
aS'said'
p4416
aS'need'
p4417
aS'had'
p4418
aS'about'
p4419
aS'about'
p4420
aS'been'
p4421
as(S'doesnt'
p4422
tp4423
(lp4424
S'exist,'
p4425
as(S'air'
p4426
tp4427
(lp4428
S'in'
p4429
as(S'hours,'
p4430
tp4431
(lp4432
g35
ag35
as(S'receiving'
p4433
tp4434
(lp4435
S'messages.'
p4436
as(S'pits,'
p4437
tp4438
(lp4439
S'let'
p4440
as(S'house'
p4441
tp4442
(lp4443
S'and'
p4444
as(g591
tp4445
(lp4446
S'END'
p4447
aS'END'
p4448
aS'END'
p4449
aS'END'
p4450
as(S'too'
p4451
tp4452
(lp4453
S'quickly.'
p4454
aS'powerful.'
p4455
aS'many'
p4456
aS'dark'
p4457
aS'far'
p4458
aS'deep'
p4459
aS'fuzzy'
p4460
ag48
as(S'ceremony,'
p4461
tp4462
(lp4463
g35
aS'the'
p4464
ag173
as(g55
tp4465
(lp4466
S'that'
p4467
as(S'most'
p4468
tp4469
(lp4470
S'of'
p4471
aS'of'
p4472
ag3073
aS'wondrous'
p4473
ag3981
aS'of'
p4474
aS'amazing'
p4475
aS'amazing'
p4476
aS'ridiculously'
p4477
aS'blissful'
p4478
as(S'show'
p4479
tp4480
(lp4481
S'some'
p4482
aS'me'
p4483
as(g3300
tp4484
(lp4485
S'END'
p4486
as(S'are?'
p4487
tp4488
(lp4489
S'END'
p4490
as(S'racing'
p4491
tp4492
(lp4493
g247
as(S'insides:'
p4494
tp4495
(lp4496
S'my'
p4497
as(g4022
tp4498
(lp4499
S'END'
p4500
as(S'powerful'
p4501
tp4502
(lp4503
S'shamans.'
p4504
aS'calculating'
p4505
aS'energy'
p4506
aS'and'
p4507
aS'energy.'
p4508
as(S'surface'
p4509
tp4510
(lp4511
S'so'
p4512
as(S'follow'
p4513
tp4514
(lp4515
S'our'
p4516
as(S'membrane.'
p4517
tp4518
(lp4519
S'END'
p4520
as(S'wondering'
p4521
tp4522
(lp4523
S"'Is"
p4524
as(g2253
tp4525
(lp4526
S'me'
p4527
as(S'outside...moving'
p4528
tp4529
(lp4530
S'had'
p4531
as(S'instantly'
p4532
tp4533
(lp4534
S'feel'
p4535
as(g4163
tp4536
(lp4537
S'and'
p4538
as(S'anything.'
p4539
tp4540
(lp4541
S'END'
p4542
as(g2020
tp4543
(lp4544
S'their'
p4545
as(g4212
tp4546
(lp4547
S'of'
p4548
as(S'ceremony'
p4549
tp4550
(lp4551
S'by'
p4552
aS'was'
p4553
as(S'always'
p4554
tp4555
(lp4556
S'have'
p4557
ag676
aS'just'
p4558
aS'bump'
p4559
as(g3315
tp4560
(lp4561
S'anger,'
p4562
as(g4114
tp4563
(lp4564
S'no'
p4565
aS'es'
p4566
aS'had'
p4567
aS'should'
p4568
aS'is'
p4569
aS'literally'
p4570
as(S'semi-empirical'
p4571
tp4572
(lp4573
S'conclusion'
p4574
as(S'cheeks'
p4575
tp4576
(lp4577
S'as'
p4578
as(g1850
tp4579
(lp4580
S'very'
p4581
aS'excited'
p4582
as(S'heaven,'
p4583
tp4584
(lp4585
S'and'
p4586
as(S'care'
p4587
tp4588
(lp4589
S'of'
p4590
aS'that'
p4591
as(S'for.'
p4592
tp4593
(lp4594
S'END'
p4595
as(S'helped'
p4596
tp4597
(lp4598
S'me'
p4599
aS'me'
p4600
as(S'universe,'
p4601
tp4602
(lp4603
S'was'
p4604
as(S'flow'
p4605
tp4606
(lp4607
S'into'
p4608
as(g1846
tp4609
(lp4610
S'shadows'
p4611
as(S'important'
p4612
tp4613
(lp4614
S'to'
p4615
aS'to'
p4616
as(g3442
tp4617
(lp4618
S'energies'
p4619
as(g68
tp4620
(lp4621
S'hard'
p4622
aS'nearly'
p4623
aS'scared'
p4624
aS'that,'
p4625
as(S'cut'
p4626
tp4627
(lp4628
S'out'
p4629
as(S'shamans:'
p4630
tp4631
(lp4632
S"'Remember"
p4633
as(g1968
tp4634
(lp4635
S'as'
p4636
as(g3846
tp4637
(lp4638
S'how'
p4639
ag2888
aS'thing'
p4640
as(g2270
tp4641
(lp4642
S'rotation,'
p4643
as(g3003
tp4644
(lp4645
S'END'
p4646
as(g3399
tp4647
(lp4648
S'at'
p4649
as(S'disappeared'
p4650
tp4651
(lp4652
g2806
as(S'friends'
p4653
tp4654
(lp4655
S'who'
p4656
aS'and'
p4657
aS'and'
p4658
aS'to'
p4659
as(g4157
tp4660
(lp4661
g3523
aS'sense'
p4662
as(S'hours'
p4663
tp4664
(lp4665
g777
aS'he'
p4666
aS'into'
p4667
aS'were'
p4668
as(S'talking'
p4669
tp4670
(lp4671
S'to'
p4672
ag2974
aS'to'
p4673
aS'by'
p4674
aS'to'
p4675
aS'to'
p4676
aS'and'
p4677
aS'and'
p4678
as(S'had'
p4679
tp4680
(lp4681
S'been'
p4682
aS'pretty'
p4683
ag4402
aS'expected.'
p4684
aS'left'
p4685
aS'ever'
p4686
ag2875
ag173
aS'an'
p4687
aS'just'
p4688
ag35
aS'no'
p4689
aS'many'
p4690
aS'connected'
p4691
aS'no'
p4692
aS'no'
p4693
aS'become'
p4694
aS'no'
p4695
aS'come'
p4696
aS'just'
p4697
aS'had'
p4698
ag2824
aS'gone'
p4699
aS'to'
p4700
aS'been'
p4701
aS'felt'
p4702
aS'felt'
p4703
aS'noticed'
p4704
aS'of'
p4705
aS'ever'
p4706
aS'not'
p4707
aS'been'
p4708
aS'planned'
p4709
aS'to'
p4710
aS'all'
p4711
aS'their'
p4712
aS'only'
p4713
ag173
aS'to'
p4714
aS'once'
p4715
aS'never'
p4716
aS'even'
p4717
aS'almost'
p4718
ag2275
aS'sent'
p4719
aS'their'
p4720
ag3712
aS'run'
p4721
aS'to'
p4722
aS'been'
p4723
aS'all'
p4724
aS'been'
p4725
aS'just'
p4726
aS'been'
p4727
aS'somehow'
p4728
ag35
as(S'expressed'
p4729
tp4730
(lp4731
S'something'
p4732
aS'that'
p4733
aS'that'
p4734
as(S'uses'
p4735
tp4736
(lp4737
S'these'
p4738
as(g4216
tp4739
(lp4740
S'of'
p4741
as(S'my'
p4742
tp4743
(lp4744
S'eyes,'
p4745
aS'visual'
p4746
ag4653
aS'body,'
p4747
ag2077
aS'cognitive'
p4748
aS'experience'
p4749
aS'spirit'
p4750
aS'life.'
p4751
aS'head'
p4752
aS'situation,'
p4753
ag174
ag3605
aS'vision'
p4754
ag4061
ag4575
aS'veins.'
p4755
aS'hands;'
p4756
aS'body'
p4757
aS'body,'
p4758
aS'life-less'
p4759
aS'hands'
p4760
ag2891
aS'two'
p4761
aS'body;'
p4762
aS'body?'
p4763
aS'body'
p4764
aS'body'
p4765
aS'hands'
p4766
aS'core'
p4767
ag1420
aS'experience,'
p4768
aS'body'
p4769
aS'life'
p4770
aS'existence.'
p4771
aS'lifes'
p4772
ag398
ag235
aS'wife'
p4773
aS'mouth'
p4774
aS'blanket,'
p4775
aS'eyes'
p4776
aS'wife'
p4777
aS'eyes'
p4778
aS'love'
p4779
aS'two'
p4780
aS'pleasure'
p4781
aS'by'
p4782
aS'wish'
p4783
aS'wife'
p4784
aS'thoughts.'
p4785
ag335
aS'head,'
p4786
aS'head'
p4787
aS'neck.'
p4788
ag1225
aS'GOD'
p4789
aS'other'
p4790
aS'spiritual'
p4791
aS'amazement.'
p4792
aS'eyes'
p4793
aS'experiences'
p4794
aS'life.'
p4795
aS'tears'
p4796
aS'thankfulness'
p4797
aS'awareness'
p4798
aS'body.'
p4799
aS'body'
p4800
aS'gift.'
p4801
aS'gift'
p4802
aS'group.'
p4803
aS'body'
p4804
aS'own'
p4805
aS'target'
p4806
aS'head'
p4807
aS'breath'
p4808
aS'breathing'
p4809
aS'lesson'
p4810
aS'wife'
p4811
aS'experiences.'
p4812
aS'belief'
p4813
ag157
aS'friends'
p4814
aS'situation'
p4815
aS'surrounding'
p4816
aS'tent.'
p4817
ag1322
aS'body'
p4818
aS'body'
p4819
aS'body'
p4820
aS'hands'
p4821
aS'hands'
p4822
aS'consciousness'
p4823
aS'thoughts'
p4824
aS'life,'
p4825
aS'progress'
p4826
ag931
aS'mouth'
p4827
aS'sleeping'
p4828
aS'face'
p4829
aS'entire'
p4830
aS'right'
p4831
ag205
aS'puke'
p4832
aS'being,'
p4833
aS'stomach.'
p4834
aS'puke'
p4835
aS'bucket'
p4836
aS'water'
p4837
aS'life.'
p4838
ag4494
ag1446
aS'bucket,'
p4839
aS'despair,'
p4840
aS'hands'
p4841
aS'bucket.'
p4842
aS'anxiety'
p4843
aS'head'
p4844
aS'sleeping'
p4845
aS'bucket.'
p4846
aS'own'
p4847
aS'psychic'
p4848
aS'consciousness.'
p4849
aS'good'
p4850
aS'own'
p4851
aS'life.'
p4852
ag1326
aS'eyes.'
p4853
aS'bucket'
p4854
aS'puke'
p4855
aS'entire'
p4856
aS'brothers'
p4857
aS'next'
p4858
as(g4139
tp4859
(lp4860
S'as'
p4861
as(S'came'
p4862
tp4863
(lp4864
S'into'
p4865
aS'to'
p4866
aS'in'
p4867
aS'to'
p4868
aS'over'
p4869
aS'down'
p4870
aS'alive.'
p4871
aS'out'
p4872
aS'flowing'
p4873
aS'to'
p4874
aS'through'
p4875
aS'to'
p4876
aS'in'
p4877
aS'out'
p4878
as(g607
tp4879
(lp4880
S'in'
p4881
as(g1889
tp4882
(lp4883
S'me'
p4884
as(S'know.'
p4885
tp4886
(lp4887
S'END'
p4888
as(g4151
tp4889
(lp4890
S'inside'
p4891
as(S'path'
p4892
tp4893
(lp4894
S'and'
p4895
aS'out'
p4896
as(S'someone'
p4897
tp4898
(lp4899
S'coming'
p4900
ag3920
as(g424
tp4901
(lp4902
S'contact'
p4903
as(S'unfolding'
p4904
tp4905
(lp4906
S'of'
p4907
aS'in'
p4908
aS'about'
p4909
aS'again.'
p4910
aS'of'
p4911
as(g88
tp4912
(lp4913
S'END'
p4914
as(S'dream'
p4915
tp4916
(lp4917
S'to'
p4918
ag3822
aS'to'
p4919
aS'has'
p4920
as(S'could'
p4921
tp4922
(lp4923
S'feel'
p4924
aS'just'
p4925
aS'have'
p4926
aS'always'
p4927
aS'hear'
p4928
aS'understand'
p4929
aS'literally'
p4930
aS'feel'
p4931
aS'still'
p4932
aS'see'
p4933
aS'see'
p4934
ag3697
aS'tell'
p4935
aS'describe'
p4936
aS'imagine.'
p4937
aS'be'
p4938
aS'literally'
p4939
aS'be'
p4940
aS'barely'
p4941
aS'make'
p4942
aS'let'
p4943
aS'see'
p4944
aS'not'
p4945
aS'move.'
p4946
aS'get'
p4947
aS'sometimes'
p4948
aS'see'
p4949
aS'either'
p4950
aS'let'
p4951
aS'feel'
p4952
aS'see'
p4953
aS'let'
p4954
aS'handle'
p4955
as(S'direction.'
p4956
tp4957
(lp4958
S'END'
p4959
as(S'medicine'
p4960
tp4961
(lp4962
S'could'
p4963
aS'work'
p4964
as(S'opposing'
p4965
tp4966
(lp4967
S'asana'
p4968
as(S'found'
p4969
tp4970
(lp4971
S'myself'
p4972
aS'out'
p4973
aS'nothing'
p4974
aS'out'
p4975
as(S'entered'
p4976
tp4977
(lp4978
g173
aS'the'
p4979
as(S'sorts.'
p4980
tp4981
(lp4982
S'END'
p4983
as(S'what?'
p4984
tp4985
(lp4986
S'END'
p4987
as(S'smell'
p4988
tp4989
(lp4990
S'strongly'
p4991
as(g4760
tp4992
(lp4993
S'across'
p4994
aS'gave'
p4995
aS'on'
p4996
aS'and'
p4997
aS'and'
p4998
as(g2050
tp4999
(lp5000
g35
as(S'strength'
p5001
tp5002
(lp5003
S'of'
p5004
ag35
aS'return'
p5005
as(g2267
tp5006
(lp5007
S'and'
p5008
aS'and'
p5009
aS'at'
p5010
aS'and'
p5011
aS'and'
p5012
as(g3539
tp5013
(lp5014
S'light'
p5015
as(S'specifications.'
p5016
tp5017
(lp5018
S'END'
p5019
as(g3390
tp5020
(lp5021
S'people'
p5022
ag2849
as(S'strongly'
p5023
tp5024
(lp5025
S'to'
p5026
aS'of'
p5027
as(S'reality,'
p5028
tp5029
(lp5030
g2836
as(g1705
tp5031
(lp5032
S'an'
p5033
aS'of'
p5034
aS'between'
p5035
aS'of'
p5036
aS'of'
p5037
aS'and'
p5038
aS'of'
p5039
aS'pretty'
p5040
aS'of'
p5041
aS'in'
p5042
aS'of'
p5043
aS'how'
p5044
aS'with'
p5045
aS'laughing'
p5046
aS'of'
p5047
aS'and'
p5048
aS'in'
p5049
aS'bodies'
p5050
aS'from'
p5051
aS'was'
p5052
aS'for'
p5053
aS'to'
p5054
aS'of'
p5055
aS'of'
p5056
aS'very'
p5057
aS'later'
p5058
aS'of'
p5059
aS'later'
p5060
aS'of'
p5061
aS'here,'
p5062
aS'of'
p5063
aS'they'
p5064
as(S'energetic'
p5065
tp5066
(lp5067
S'person,'
p5068
as(g1520
tp5069
(lp5070
S'trying'
p5071
as(g1019
tp5072
(lp5073
S'constantly'
p5074
as(S'wish.'
p5075
tp5076
(lp5077
S'END'
p5078
as(g3375
tp5079
(lp5080
S'well.'
p5081
as(g1436
tp5082
(lp5083
S'like'
p5084
as(g3202
tp5085
(lp5086
S'the'
p5087
as(S'her'
p5088
tp5089
(lp5090
S'into'
p5091
aS'and'
p5092
aS'and'
p5093
aS'soul'
p5094
aS'that'
p5095
aS'out'
p5096
aS'about'
p5097
aS'say'
p5098
ag4375
as(S'ocean'
p5099
tp5100
(lp5101
S'made'
p5102
as(S'rooms'
p5103
tp5104
(lp5105
S'that'
p5106
aS'became'
p5107
as(S'Icarus,'
p5108
tp5109
(lp5110
S'convey'
p5111
as(g3444
tp5112
(lp5113
S'END'
p5114
as(S'wont'
p5115
tp5116
(lp5117
S'go'
p5118
as(S"further.'"
p5119
tp5120
(lp5121
S'END'
p5122
as(S'purge,'
p5123
tp5124
(lp5125
S'feeling'
p5126
aS'which'
p5127
as(g3632
tp5128
(lp5129
S'dance'
p5130
as(g1856
tp5131
(lp5132
S'and'
p5133
as(S'game.'
p5134
tp5135
(lp5136
S'END'
p5137
as(S"'Oh"
p5138
tp5139
(lp5140
S'God,'
p5141
as(g5074
tp5142
(lp5143
S'filled'
p5144
as(S'reason.'
p5145
tp5146
(lp5147
S'END'
p5148
as(g4815
tp5149
(lp5150
S'and'
p5151
as(S'overcome'
p5152
tp5153
(lp5154
S'that'
p5155
aS'it.'
p5156
as(S'realizations'
p5157
tp5158
(lp5159
S'about'
p5160
as(S'underwater,'
p5161
tp5162
(lp5163
g2881
as(S'feels'
p5164
tp5165
(lp5166
S'so'
p5167
aS'up'
p5168
as(S'realms,'
p5169
tp5170
(lp5171
S'and'
p5172
as(S'further'
p5173
tp5174
(lp5175
S'into'
p5176
aS'unfolding'
p5177
as(g3417
tp5178
(lp5179
g826
aS'time'
p5180
as(g4685
tp5181
(lp5182
g32
aS'to'
p5183
aS'me'
p5184
aS'and'
p5185
aS'of'
p5186
as(S'snores,'
p5187
tp5188
(lp5189
S'sighs'
p5190
as(S'pure'
p5191
tp5192
(lp5193
S'ecstatic'
p5194
aS'joy.'
p5195
as(g2042
tp5196
(lp5197
S'in'
p5198
as(g2014
tp5199
(lp5200
S'END'
p5201
as(S'stance,'
p5202
tp5203
(lp5204
S'doing'
p5205
as(S'understood'
p5206
tp5207
(lp5208
S'that'
p5209
aS'how'
p5210
as(g3535
tp5211
(lp5212
g35
as(S'aromatic'
p5213
tp5214
(lp5215
S'aftertaste'
p5216
as(g4440
tp5217
(lp5218
S'it'
p5219
aS'my'
p5220
aS'him'
p5221
aS'go.'
p5222
aS'go'
p5223
aS'it'
p5224
aS'go,'
p5225
aS'us'
p5226
aS'go'
p5227
as(S'this.'
p5228
tp5229
(lp5230
S'END'
p5231
aS'END'
p5232
aS'END'
p5233
aS'END'
p5234
as(S'pitch'
p5235
tp5236
(lp5237
S'black'
p5238
as(S'war'
p5239
tp5240
(lp5241
S'of'
p5242
as(S'journeys,'
p5243
tp5244
(lp5245
S'so'
p5246
as(S'block'
p5247
tp5248
(lp5249
S'that'
p5250
as(S'alabaster'
p5251
tp5252
(lp5253
S'high'
p5254
as(S'purge'
p5255
tp5256
(lp5257
S'happened'
p5258
aS'happened,'
p5259
aS'was'
p5260
aS'would'
p5261
aS'so'
p5262
ag173
aS'coming,'
p5263
aS'that'
p5264
aS'when'
p5265
as(g3288
tp5266
(lp5267
S'it'
p5268
aS'following'
p5269
aS'it'
p5270
as(S'ness'
p5271
tp5272
(lp5273
S'of'
p5274
as(S'left.'
p5275
tp5276
(lp5277
S'END'
p5278
aS'END'
p5279
as(S'singing'
p5280
tp5281
(lp5282
S'to'
p5283
aS'was'
p5284
as(S'it,'
p5285
tp5286
(lp5287
S'my'
p5288
ag35
ag35
ag35
as(g141
tp5289
(lp5290
S'ready.'
p5291
as(g3400
tp5292
(lp5293
S'that'
p5294
as(g4182
tp5295
(lp5296
S'street.'
p5297
as(S'intensity'
p5298
tp5299
(lp5300
S'of'
p5301
aS'of'
p5302
as(S'maestro'
p5303
tp5304
(lp5305
S'getting'
p5306
aS'(who'
p5307
aS'who'
p5308
aS'sang'
p5309
as(S'times,'
p5310
tp5311
(lp5312
S'many'
p5313
as(S'eternally'
p5314
tp5315
(lp5316
S'connected'
p5317
as(S'chant.'
p5318
tp5319
(lp5320
S'END'
p5321
as(g4233
tp5322
(lp5323
S'by'
p5324
as(S'asana.'
p5325
tp5326
(lp5327
S'END'
p5328
aS'END'
p5329
as(g1781
tp5330
(lp5331
S'and'
p5332
as(S'pad,'
p5333
tp5334
(lp5335
S'with'
p5336
as(g874
tp5337
(lp5338
S'END'
p5339
as(S'so.'
p5340
tp5341
(lp5342
S'END'
p5343
as(g4791
tp5344
(lp5345
g4892
as(S'your'
p5346
tp5347
(lp5348
g5075
aS'souls'
p5349
aS"space.'"
p5350
as(g517
tp5351
(lp5352
S'exercises.'
p5353
ag244
as(S'gentle.'
p5354
tp5355
(lp5356
S'END'
p5357
as(g314
tp5358
(lp5359
S'the'
p5360
aS'my'
p5361
as(S'Ayahuasca.'
p5362
tp5363
(lp5364
S'END'
p5365
aS'END'
p5366
as(S'10'
p5367
tp5368
(lp5369
S'feet'
p5370
as(g3163
tp5371
(lp5372
S'and'
p5373
as(S'muster.'
p5374
tp5375
(lp5376
S'END'
p5377
as(g1642
tp5378
(lp5379
S'good'
p5380
as(S'see,'
p5381
tp5382
(lp5383
S'which'
p5384
as(S'information'
p5385
tp5386
(lp5387
S'that'
p5388
aS'unfolding'
p5389
aS'and'
p5390
aS'She'
p5391
aS'was'
p5392
as(g1106
tp5393
(lp5394
S'that'
p5395
as(g332
tp5396
(lp5397
S'and'
p5398
as(S'because'
p5399
tp5400
(lp5401
g35
ag35
ag35
ag35
aS'we'
p5402
ag35
aS'of'
p5403
aS'we'
p5404
as(S'warriors'
p5405
tp5406
(lp5407
S'who'
p5408
as(S'eternal,'
p5409
tp5410
(lp5411
S'and'
p5412
as(g610
tp5413
(lp5414
S'apart,'
p5415
as(g837
tp5416
(lp5417
S'voice,'
p5418
as(g3395
tp5419
(lp5420
S'tunnels'
p5421
as(S'having'
p5422
tp5423
(lp5424
g173
aS'his'
p5425
aS'visions'
p5426
ag173
ag173
as(S'realization,'
p5427
tp5428
(lp5429
S'my'
p5430
as(S'myself:'
p5431
tp5432
(lp5433
S'Why'
p5434
as(S'keeping'
p5435
tp5436
(lp5437
S'my'
p5438
as(S'sounded'
p5439
tp5440
(lp5441
S'like'
p5442
as(S'ELECTRIC.'
p5443
tp5444
(lp5445
S'END'
p5446
as(g165
tp5447
(lp5448
S'your'
p5449
as(S'shaman'
p5450
tp5451
(lp5452
g4735
aS'silent?'
p5453
aS'who'
p5454
aS'started'
p5455
as(g991
tp5456
(lp5457
g4229
as(S'closed'
p5458
tp5459
(lp5460
g4742
aS'my'
p5461
aS'my'
p5462
aS'my'
p5463
as(S'guys'
p5464
tp5465
(lp5466
S'just'
p5467
as(S'used'
p5468
tp5469
(lp5470
g3738
aS'drums'
p5471
aS'to'
p5472
as(S'of'
p5473
tp5474
(lp5475
g497
aS'the'
p5476
aS'blankets'
p5477
aS'an'
p5478
ag173
aS'the'
p5479
aS'us'
p5480
aS'the'
p5481
aS'people.'
p5482
aS'mother'
p5483
aS'my'
p5484
aS'Chasidic'
p5485
ag3666
aS'the'
p5486
ag3575
ag3548
aS'investigation.'
p5487
ag58
aS'the'
p5488
aS'them'
p5489
aS'the'
p5490
ag755
aS'my'
p5491
aS'them'
p5492
ag1567
ag3111
aS'my'
p5493
ag2111
aS'our'
p5494
aS'their'
p5495
aS'the'
p5496
aS'this'
p5497
aS'my'
p5498
aS'the'
p5499
aS'sound.'
p5500
aS'realizing'
p5501
aS'the'
p5502
aS'dogs,'
p5503
aS'all'
p5504
aS'God'
p5505
aS'light,'
p5506
aS'his'
p5507
aS'my'
p5508
aS'my'
p5509
aS'hyperdimensional'
p5510
ag2832
aS'God'
p5511
aS'death.'
p5512
ag3989
aS'all,'
p5513
aS'certain'
p5514
ag3648
aS'them'
p5515
aS'interconnected'
p5516
aS'all'
p5517
aS'HE'
p5518
ag1753
aS'the'
p5519
ag911
aS'them'
p5520
aS'detailed'
p5521
aS'the'
p5522
aS'our'
p5523
aS'magic.'
p5524
aS'this'
p5525
aS'perfect'
p5526
aS'it,'
p5527
aS'sense'
p5528
aS'the'
p5529
aS'pleasure'
p5530
aS'my'
p5531
aS'everything'
p5532
ag694
aS'whatever'
p5533
aS'the'
p5534
aS'talking'
p5535
aS'this.'
p5536
aS'my'
p5537
ag3467
aS'the'
p5538
aS'trees'
p5539
aS'it'
p5540
aS'every'
p5541
aS'ever'
p5542
aS'thankfulness'
p5543
aS'my'
p5544
aS'the'
p5545
aS'perfect'
p5546
aS'thankfulness'
p5547
aS'the'
p5548
aS'art'
p5549
aS'the'
p5550
aS'care'
p5551
aS'the'
p5552
aS'the'
p5553
aS'martial'
p5554
aS'all,'
p5555
aS'my'
p5556
aS'yoga,'
p5557
aS'this'
p5558
aS'martial'
p5559
aS'activity,'
p5560
aS'meditation,'
p5561
aS'it'
p5562
aS'my'
p5563
aS'it'
p5564
ag2326
aS'my'
p5565
aS'tune,'
p5566
aS'leather.'
p5567
aS'leather'
p5568
aS'healing'
p5569
aS'my'
p5570
aS'my'
p5571
aS'the'
p5572
aS'it'
p5573
aS'another'
p5574
ag979
ag307
aS'them'
p5575
aS'the'
p5576
aS'the'
p5577
aS'the'
p5578
ag1512
aS'tobacco.'
p5579
aS'the'
p5580
aS'DMT:'
p5581
ag878
ag173
ag3612
aS'my'
p5582
aS'nausea'
p5583
ag5028
aS'every'
p5584
aS'energy'
p5585
aS'me'
p5586
aS'plants'
p5587
aS'my'
p5588
aS'one'
p5589
aS'the'
p5590
aS'my'
p5591
aS"maestro's"
p5592
aS'the'
p5593
aS'the'
p5594
aS'me.'
p5595
aS'the'
p5596
aS'the'
p5597
aS'my'
p5598
aS'the'
p5599
aS'the'
p5600
aS'the'
p5601
aS'my'
p5602
aS'me'
p5603
aS'the'
p5604
aS"maestro's"
p5605
aS'evil'
p5606
aS'Aya.'
p5607
aS'energy'
p5608
aS'the'
p5609
aS'the'
p5610
aS'the'
p5611
aS'energy'
p5612
aS'energy'
p5613
aS'the'
p5614
aS'consciousness'
p5615
aS'those'
p5616
aS'myself'
p5617
aS'that'
p5618
aS'information'
p5619
ag5251
aS'the'
p5620
ag3651
aS'peace'
p5621
ag3544
aS'love,'
p5622
ag681
aS'it.'
p5623
aS'humor'
p5624
aS'humor,'
p5625
ag2120
aS'people'
p5626
aS'their'
p5627
aS'the'
p5628
aS'their'
p5629
aS'others.'
p5630
aS'friendly'
p5631
ag2240
as(S'work'
p5632
tp5633
(lp5634
S'on'
p5635
aS'of'
p5636
aS'harder.'
p5637
aS'its'
p5638
as(S'intense'
p5639
tp5640
(lp5641
S'and'
p5642
as(g1936
tp5643
(lp5644
S'and'
p5645
as(S'there,'
p5646
tp5647
(lp5648
g35
aS'and'
p5649
as(S'listening'
p5650
tp5651
(lp5652
S'to'
p5653
as(S'received'
p5654
tp5655
(lp5656
g173
as(S'moves'
p5657
tp5658
(lp5659
S'and'
p5660
aS'of'
p5661
as(S'experience.'
p5662
tp5663
(lp5664
S'END'
p5665
as(S'start'
p5666
tp5667
(lp5668
S'to'
p5669
aS'seeing'
p5670
as(g1963
tp5671
(lp5672
S'out'
p5673
aS'out'
p5674
aS'out'
p5675
as(S'help!'
p5676
tp5677
(lp5678
S'END'
p5679
as(S'analyze'
p5680
tp5681
(lp5682
S'myself,'
p5683
as(g342
tp5684
(lp5685
S'hard'
p5686
as(g3437
tp5687
(lp5688
g35
as(g1977
tp5689
(lp5690
S'up'
p5691
as(S'imagined'
p5692
tp5693
(lp5694
S'to'
p5695
as(g1034
tp5696
(lp5697
S'END'
p5698
as(g4842
tp5699
(lp5700
S'END'
p5701
aS'END'
p5702
as(S'brought'
p5703
tp5704
(lp5705
S'back'
p5706
aS'me'
p5707
aS'light'
p5708
as(S'guess'
p5709
tp5710
(lp5711
S'that'
p5712
as(g1059
tp5713
(lp5714
S'was'
p5715
as(S'volkswagon'
p5716
tp5717
(lp5718
S'beetle'
p5719
as(g5557
tp5720
(lp5721
S'dance,'
p5722
aS'and'
p5723
as(S'magical:'
p5724
tp5725
(lp5726
g2257
as(S'confined'
p5727
tp5728
(lp5729
S'to'
p5730
as(g4832
tp5731
(lp5732
S'bucket'
p5733
aS'bucket'
p5734
aS'bucket'
p5735
as(S'thatched'
p5736
tp5737
(lp5738
g2221
as(S'intonations'
p5739
tp5740
(lp5741
S'to'
p5742
as(S'its'
p5743
tp5744
(lp5745
S'own'
p5746
ag1358
ag1213
aS'way'
p5747
as(S'you,'
p5748
tp5749
(lp5750
S'you'
p5751
as(S'thoughts'
p5752
tp5753
(lp5754
g4487
ag3132
aS'are'
p5755
as(g4759
tp5756
(lp5757
S'body,'
p5758
as(g4158
tp5759
(lp5760
S'of'
p5761
aS'is'
p5762
as(g4269
tp5763
(lp5764
g3049
as(g3424
tp5765
(lp5766
S'energies'
p5767
as(g71
tp5768
(lp5769
S'me'
p5770
aS'me'
p5771
as(S'got'
p5772
tp5773
(lp5774
S'comfortable'
p5775
aS'what'
p5776
aS'bored'
p5777
ag173
aS'to'
p5778
aS'the'
p5779
aS'rid'
p5780
as(S'dozens'
p5781
tp5782
(lp5783
S'of'
p5784
as(g4173
tp5785
(lp5786
S'lot'
p5787
as(g5719
tp5788
(lp5789
S'up'
p5790
as(S'do.'
p5791
tp5792
(lp5793
S'END'
p5794
as(S'gave'
p5795
tp5796
(lp5797
S'the'
p5798
aS'us'
p5799
aS'me'
p5800
aS'us'
p5801
aS'me'
p5802
aS'us'
p5803
aS'me'
p5804
as(S'describe'
p5805
tp5806
(lp5807
S'upon'
p5808
aS'it'
p5809
as(g136
tp5810
(lp5811
g35
as(g4237
tp5812
(lp5813
g1416
as(S'place'
p5814
tp5815
(lp5816
S'my'
p5817
aS'of'
p5818
as(S'coca'
p5819
tp5820
(lp5821
S'leaves,'
p5822
aS'are'
p5823
as(g4205
tp5824
(lp5825
S'made'
p5826
as(S'over,'
p5827
tp5828
(lp5829
S'over,'
p5830
aS'over,'
p5831
aS'how'
p5832
as(S'issues'
p5833
tp5834
(lp5835
S'between'
p5836
as(g4930
tp5837
(lp5838
S'understand'
p5839
aS'did'
p5840
aS'see'
p5841
as(g4505
tp5842
(lp5843
g580
as(g4000
tp5844
(lp5845
S'END'
p5846
aS'END'
p5847
as(S'people'
p5848
tp5849
(lp5850
g5805
aS'have'
p5851
aS'should'
p5852
aS'who'
p5853
aS'lit'
p5854
aS'around'
p5855
aS'started'
p5856
ag35
aS'bedecked'
p5857
aS'in'
p5858
as(g3844
tp5859
(lp5860
g173
ag3552
ag891
aS'began'
p5861
aS'has'
p5862
aS'read'
p5863
as(S'old-school'
p5864
tp5865
(lp5866
g5716
as(S'hallucinations.'
p5867
tp5868
(lp5869
S'END'
p5870
as(S'friend'
p5871
tp5872
(lp5873
S'next'
p5874
as(g3365
tp5875
(lp5876
S'the'
p5877
as(S'level,'
p5878
tp5879
(lp5880
S'the'
p5881
aS'all'
p5882
as(S'call'
p5883
tp5884
(lp5885
S'out'
p5886
as(g3203
tp5887
(lp5888
S'there'
p5889
ag35
aS'the'
p5890
aS'the'
p5891
aS'my'
p5892
aS'somewhere'
p5893
as(g433
tp5894
(lp5895
g5727
ag604
as(g3186
tp5896
(lp5897
S'were'
p5898
aS'passed'
p5899
aS'began'
p5900
aS'seemed'
p5901
ag4729
aS'talked'
p5902
aS'talked'
p5903
aS'talked'
p5904
aS'talked'
p5905
aS'aya'
p5906
as(S'personal'
p5907
tp5908
(lp5909
g5157
aS'conversation'
p5910
ag5833
aS'advice...I'
p5911
ag883
as(g1659
tp5912
(lp5913
S'the'
p5914
as(S'cry'
p5915
tp5916
(lp5917
S'with'
p5918
as(S'surrounding'
p5919
tp5920
(lp5921
g652
aS'and'
p5922
as(S'coursing'
p5923
tp5924
(lp5925
S'throughout'
p5926
as(g4224
tp5927
(lp5928
S'and'
p5929
as(S'care,'
p5930
tp5931
(lp5932
S'oiling'
p5933
as(g4788
tp5934
(lp5935
S'END'
p5936
as(g1366
tp5937
(lp5938
S'and'
p5939
as(g397
tp5940
(lp5941
S'me'
p5942
aS'me'
p5943
as(S'shaman,'
p5944
tp5945
(lp5946
S'and'
p5947
ag35
aS'in'
p5948
as(g1875
tp5949
(lp5950
S'flowed'
p5951
aS'turned'
p5952
as(S'declined,'
p5953
tp5954
(lp5955
S'but'
p5956
as(S'bullshit.'
p5957
tp5958
(lp5959
S'END'
p5960
as(g1507
tp5961
(lp5962
S'castles'
p5963
as(S'much.'
p5964
tp5965
(lp5966
S'END'
p5967
as(g4065
tp5968
(lp5969
S'END'
p5970
aS'END'
p5971
as(g4380
tp5972
(lp5973
S'would'
p5974
aS'that'
p5975
aS'that'
p5976
aS'grew'
p5977
aS'would'
p5978
aS'and'
p5979
aS'of'
p5980
aS'and'
p5981
as(S'this'
p5982
tp5983
(lp5984
g209
ag3684
aS'was'
p5985
ag518
aS'situation,'
p5986
ag1433
aS'point,'
p5987
ag5427
aS'hyperdimensional'
p5988
ag4346
aS'violet'
p5989
aS'light.'
p5990
aS'real.'
p5991
aS'time.'
p5992
aS'most'
p5993
aS'was'
p5994
aS'description'
p5995
aS'dream'
p5996
aS'strong'
p5997
aS'gift'
p5998
aS'information'
p5999
aS'dance'
p6000
aS'sort'
p6001
ag5145
aS'is'
p6002
ag4091
aS'time,'
p6003
ag3069
aS'what'
p6004
aS'purge'
p6005
aS'to'
p6006
aS'madness,'
p6007
ag2938
ag2949
aS'point'
p6008
aS'was'
p6009
aS'point.'
p6010
aS'point,'
p6011
aS'information'
p6012
aS'remarkable'
p6013
as(g3943
tp6014
(lp6015
S'right,'
p6016
aS'love'
p6017
aS'body'
p6018
ag1428
aS'body.'
p6019
aS'nausea'
p6020
as(S'arrive.'
p6021
tp6022
(lp6023
S'END'
p6024
as(g810
tp6025
(lp6026
S'starts'
p6027
as(S'healing'
p6028
tp6029
(lp6030
S'me,'
p6031
aS'portion'
p6032
ag2085
as(S'change,'
p6033
tp6034
(lp6035
g4397
as(g4950
tp6036
(lp6037
S'go'
p6038
aS'shit'
p6039
as(g5050
tp6040
(lp6041
S'to'
p6042
as(S'regions'
p6043
tp6044
(lp6045
S'of'
p6046
as(g5505
tp6047
(lp6048
S'as'
p6049
aS'and'
p6050
ag4422
aS'is'
p6051
as(S'earth'
p6052
tp6053
(lp6054
S'or'
p6055
as(g1080
tp6056
(lp6057
S'and'
p6058
as(S'given.'
p6059
tp6060
(lp6061
S'END'
p6062
as(S'evening'
p6063
tp6064
(lp6065
S'and'
p6066
as(g881
tp6067
(lp6068
g1573
as(S'running'
p6069
tp6070
(lp6071
g2181
ag632
as(g3026
tp6072
(lp6073
S'it'
p6074
as(S'hut.'
p6075
tp6076
(lp6077
S'END'
p6078
as(S'least'
p6079
tp6080
(lp6081
S'the'
p6082
aS'imagine'
p6083
aS'their'
p6084
as(S'optimal'
p6085
tp6086
(lp6087
S'running'
p6088
as(g5471
tp6089
(lp6090
S'and'
p6091
as(S'sing.'
p6092
tp6093
(lp6094
S'END'
p6095
as(g2843
tp6096
(lp6097
S'at'
p6098
aS'if'
p6099
aS'and'
p6100
aS'of'
p6101
aS'of'
p6102
aS'of'
p6103
aS'of'
p6104
aS'of'
p6105
as(S'describing'
p6106
tp6107
(lp6108
S'them,'
p6109
as(g4622
tp6110
(lp6111
S'to'
p6112
aS'at'
p6113
aS'but'
p6114
ag4083
aS'to'
p6115
aS'with'
p6116
ag35
aS'that'
p6117
as(S'working'
p6118
tp6119
(lp6120
S'very'
p6121
aS'it'
p6122
as(S'vine,'
p6123
tp6124
(lp6125
S'moving'
p6126
as(S'sweep'
p6127
tp6128
(lp6129
S'before'
p6130
as(g4124
tp6131
(lp6132
g173
aS'not'
p6133
as(g4460
tp6134
(lp6135
S'to'
p6136
as(S'cold'
p6137
tp6138
(lp6139
S'water,'
p6140
ag3156
as(g1208
tp6141
(lp6142
S'people'
p6143
as(g5263
tp6144
(lp6145
S'as'
p6146
as(g2027
tp6147
(lp6148
g887
as(g5902
tp6149
(lp6150
S'to'
p6151
aS'to'
p6152
aS'to'
p6153
aS'to'
p6154
aS'of'
p6155
as(g1570
tp6156
(lp6157
S'that'
p6158
aS'were'
p6159
aS'like'
p6160
aS'are'
p6161
aS'that'
p6162
aS'up'
p6163
as(S'ceremony.'
p6164
tp6165
(lp6166
S'END'
p6167
as(S'straight'
p6168
tp6169
(lp6170
S'at'
p6171
as(S'Am'
p6172
tp6173
(lp6174
g35
as(S'split.'
p6175
tp6176
(lp6177
S'END'
p6178
as(S'hue,'
p6179
tp6180
(lp6181
S'tint,'
p6182
as(S'next'
p6183
tp6184
(lp6185
S'to'
p6186
aS'and'
p6187
aS'hour'
p6188
aS'to'
p6189
aS'several'
p6190
aS'sitting'
p6191
as(S'order'
p6192
tp6193
(lp6194
S'to'
p6195
as(g867
tp6196
(lp6197
S'had'
p6198
as(g5500
tp6199
(lp6200
S'END'
p6201
as(g1069
tp6202
(lp6203
g1179
as(S'here?'
p6204
tp6205
(lp6206
S'END'
p6207
as(g1855
tp6208
(lp6209
S'and'
p6210
as(S'pleasure.'
p6211
tp6212
(lp6213
S'END'
p6214
as(S'fire.'
p6215
tp6216
(lp6217
S'END'
p6218
aS'END'
p6219
as(g1097
tp6220
(lp6221
S'ahead.'
p6222
aS'sky.'
p6223
aS'comes'
p6224
aS'and'
p6225
as(g4247
tp6226
(lp6227
S'END'
p6228
as(S'fast'
p6229
tp6230
(lp6231
g1260
aS'that'
p6232
as(S'around'
p6233
tp6234
(lp6235
S'her'
p6236
aS'each'
p6237
aS'than'
p6238
aS'our'
p6239
aS'me'
p6240
aS'me'
p6241
aS'and'
p6242
aS'me.'
p6243
aS'2'
p6244
aS'the'
p6245
aS'me'
p6246
aS'me,'
p6247
aS'and'
p6248
as(g3377
tp6249
(lp6250
g4984
ag3670
aS'me,'
p6251
as(g4200
tp6252
(lp6253
S'time'
p6254
aS'and'
p6255
as(g3839
tp6256
(lp6257
S'up'
p6258
as(S'several'
p6259
tp6260
(lp6261
g5310
aS'hours'
p6262
as(g4562
tp6263
(lp6264
S'fear,'
p6265
as(g3175
tp6266
(lp6267
g5795
aS'is'
p6268
aS'sparked'
p6269
aS'must'
p6270
aS'is'
p6271
aS'is'
p6272
aS'is'
p6273
as(g3174
tp6274
(lp6275
S'began'
p6276
aS'then'
p6277
aS'then'
p6278
aS'blessed'
p6279
aS'handed'
p6280
aS'told'
p6281
aS'would'
p6282
aS'used'
p6283
aS'laughed'
p6284
aS'helped'
p6285
as(S'driving'
p6286
tp6287
(lp6288
S'on'
p6289
as(g1265
tp6290
(lp6291
S'seconds,'
p6292
ag2921
aS'hours,'
p6293
as(S'astounding'
p6294
tp6295
(lp6296
g5271
as(S'pain'
p6297
tp6298
(lp6299
S'and'
p6300
as(g4833
tp6301
(lp6302
g576
as(g5592
tp6303
(lp6304
S'voice,'
p6305
ag4107
aS'presence'
p6306
as(S'choose'
p6307
tp6308
(lp6309
S'when'
p6310
as(g4327
tp6311
(lp6312
S'and'
p6313
as(S'bottle'
p6314
tp6315
(lp6316
S'filled'
p6317
aS'before'
p6318
ag6259
as(g5568
tp6319
(lp6320
S'can'
p6321
as(g1270
tp6322
(lp6323
g6211
as(g4145
tp6324
(lp6325
S'experience'
p6326
as(S'comfort'
p6327
tp6328
(lp6329
S'me,'
p6330
ag971
as(S'heaven.'
p6331
tp6332
(lp6333
S'END'
p6334
as(S'presence'
p6335
tp6336
(lp6337
g966
aS'came'
p6338
aS'within'
p6339
aS'seemed'
p6340
aS'was'
p6341
aS'gave'
p6342
aS'begin'
p6343
aS'keep'
p6344
aS'within'
p6345
aS'in'
p6346
as(g3363
tp6347
(lp6348
S'understandings'
p6349
as(S'peak'
p6350
tp6351
(lp6352
S'of'
p6353
as(S'fire'
p6354
tp6355
(lp6356
S'to'
p6357
as(g5111
tp6358
(lp6359
g769
as(g2032
tp6360
(lp6361
S'revelations'
p6362
as(g4789
tp6363
(lp6364
g35
as(S'fetal'
p6365
tp6366
(lp6367
S'position.'
p6368
as(S'boundaries'
p6369
tp6370
(lp6371
S'that'
p6372
as(g5524
tp6373
(lp6374
S'END'
p6375
as(g1966
tp6376
(lp6377
S'them'
p6378
aS'me'
p6379
as(S'blessings'
p6380
tp6381
(lp6382
S'by'
p6383
as(S'impossible'
p6384
tp6385
(lp6386
S'save'
p6387
as(g4817
tp6388
(lp6389
S'END'
p6390
as(g4767
tp6391
(lp6392
g3727
as(g3557
tp6393
(lp6394
S'END'
p6395
as(g1876
tp6396
(lp6397
S'END'
p6398
aS'END'
p6399
aS'END'
p6400
as(S'barely'
p6401
tp6402
(lp6403
S'handle'
p6404
aS'make'
p6405
as(S'when'
p6406
tp6407
(lp6408
g35
aS'the'
p6409
ag35
ag35
aS'it'
p6410
ag35
aS'my'
p6411
ag35
ag35
aS'we'
p6412
as(g4393
tp6413
(lp6414
S'END'
p6415
as(g5790
tp6416
(lp6417
S'to'
p6418
aS'in'
p6419
aS'of'
p6420
aS'into'
p6421
aS'to'
p6422
aS'again.'
p6423
aS'again.'
p6424
aS'after'
p6425
aS'with'
p6426
aS'and'
p6427
aS'for'
p6428
aS'and'
p6429
aS'until'
p6430
ag842
aS'and'
p6431
aS'garbage'
p6432
aS'the'
p6433
aS'and'
p6434
aS'until'
p6435
as(S'well.'
p6436
tp6437
(lp6438
S'END'
p6439
aS'END'
p6440
aS'END'
p6441
aS'END'
p6442
as(g4826
tp6443
(lp6444
S'down'
p6445
as(S'down,'
p6446
tp6447
(lp6448
S'and'
p6449
aS'and'
p6450
aS'with'
p6451
ag35
ag35
as(g4625
tp6452
(lp6453
S'It'
p6454
as(S'facedown'
p6455
tp6456
(lp6457
S'on'
p6458
as(g4506
tp6459
(lp6460
S'rushes'
p6461
aS'flows'
p6462
aS'going'
p6463
aS'as'
p6464
aS'to'
p6465
aS'of'
p6466
aS'course'
p6467
aS'out'
p6468
aS'downwards'
p6469
ag35
aS'sinking'
p6470
aS'to'
p6471
aS'was'
p6472
as(g5415
tp6473
(lp6474
g493
as(S'far.'
p6475
tp6476
(lp6477
S'END'
p6478
aS'END'
p6479
as(g4773
tp6480
(lp6481
S'realized'
p6482
ag860
aS'came'
p6483
ag2225
aS'and'
p6484
aS'joins'
p6485
as(g665
tp6486
(lp6487
S'if'
p6488
aS'was'
p6489
aS'transformed'
p6490
as(S'games'
p6491
tp6492
(lp6493
S'with'
p6494
as(g491
tp6495
(lp6496
g5103
as(S'spirits.'
p6497
tp6498
(lp6499
S'END'
p6500
aS'END'
p6501
as(g4504
tp6502
(lp6503
S'END'
p6504
as(g1954
tp6505
(lp6506
S'around.'
p6507
as(g486
tp6508
(lp6509
S'all'
p6510
as(S'barking'
p6511
tp6512
(lp6513
S'and'
p6514
as(S'beauty'
p6515
tp6516
(lp6517
S'of'
p6518
aS'of'
p6519
aS'of'
p6520
as(g4026
tp6521
(lp6522
S'for'
p6523
as(g5607
tp6524
(lp6525
S'END'
p6526
aS'END'
p6527
as(S'am'
p6528
tp6529
(lp6530
S'no'
p6531
aS'no'
p6532
aS'experiencing'
p6533
aS'totally'
p6534
aS'still'
p6535
aS'to'
p6536
aS'rewarded'
p6537
ag3872
ag2990
aS'directed'
p6538
aS'exhausted.'
p6539
aS'feeling'
p6540
aS'shown'
p6541
aS'expected'
p6542
aS'shown'
p6543
aS'thinking'
p6544
aS'totally'
p6545
aS'so'
p6546
aS'so'
p6547
as(S'auditory'
p6548
tp6549
(lp6550
S'signals'
p6551
as(g4242
tp6552
(lp6553
S'for'
p6554
as(S'settle'
p6555
tp6556
(lp6557
S'into'
p6558
as(g3637
tp6559
(lp6560
S'of'
p6561
as(g2029
tp6562
(lp6563
S'or'
p6564
as(S'clutching'
p6565
tp6566
(lp6567
S'onto'
p6568
as(g1108
tp6569
(lp6570
S'of'
p6571
as(g4454
tp6572
(lp6573
S'END'
p6574
as(S'seemed'
p6575
tp6576
(lp6577
S'like'
p6578
aS'to'
p6579
aS'to'
p6580
aS'to'
p6581
aS'to'
p6582
aS'like'
p6583
aS'to'
p6584
aS'to'
p6585
aS'to'
p6586
aS'just'
p6587
aS'to'
p6588
as(g5418
tp6589
(lp6590
S'If'
p6591
aS'even'
p6592
as(S'hyperdimensional'
p6593
tp6594
(lp6595
S'entities,'
p6596
ag4517
aS'entity'
p6597
as(S'will'
p6598
tp6599
(lp6600
S'all'
p6601
aS'take'
p6602
aS'be'
p6603
aS'simply'
p6604
aS'overcome'
p6605
as(g6032
tp6606
(lp6607
S'of'
p6608
as(g4153
tp6609
(lp6610
g3792
as(g6404
tp6611
(lp6612
g6286
aS'this.'
p6613
as(S'girl'
p6614
tp6615
(lp6616
S'to'
p6617
as(S'calm'
p6618
tp6619
(lp6620
S'me'
p6621
aS'again.'
p6622
ag572
aS'us,'
p6623
as(S'eternity'
p6624
tp6625
(lp6626
S'of'
p6627
as(g6284
tp6628
(lp6629
S'and'
p6630
as(g3364
tp6631
(lp6632
S'old'
p6633
as(g204
tp6634
(lp6635
S'END'
p6636
as(g4315
tp6637
(lp6638
S'back'
p6639
as(S'he'
p6640
tp6641
(lp6642
S'was'
p6643
aS'chanted'
p6644
aS'asked'
p6645
aS'would'
p6646
ag4596
aS'was'
p6647
aS'said'
p6648
aS'might'
p6649
aS'sang,'
p6650
aS'sang'
p6651
as(g5482
tp6652
(lp6653
S'END'
p6654
as(S'tasted'
p6655
tp6656
(lp6657
S'like'
p6658
ag5724
as(g3894
tp6659
(lp6660
S'all'
p6661
as(S'second'
p6662
tp6663
(lp6664
S'glass'
p6665
aS'rise'
p6666
as(g4751
tp6667
(lp6668
S'END'
p6669
aS'END'
p6670
aS'END'
p6671
aS'END'
p6672
aS'END'
p6673
as(S'forever'
p6674
tp6675
(lp6676
S'changed...I'
p6677
as(g3204
tp6678
(lp6679
S'spirits'
p6680
aS'spirits'
p6681
aS'spirits'
p6682
ag1299
as(S'La'
p6683
tp6684
(lp6685
S'Medecina.'
p6686
as(g5854
tp6687
(lp6688
S'cigarettes'
p6689
as(S'matter'
p6690
tp6691
(lp6692
S'what'
p6693
as(g3430
tp6694
(lp6695
S'noises,'
p6696
as(g4903
tp6697
(lp6698
S'with'
p6699
aS'with'
p6700
as(g116
tp6701
(lp6702
S'getting'
p6703
as(S'taken'
p6704
tp6705
(lp6706
S'by'
p6707
aS'together.'
p6708
as(S'appreciating'
p6709
tp6710
(lp6711
g173
as(g4266
tp6712
(lp6713
S'to'
p6714
as(g1891
tp6715
(lp6716
S'into'
p6717
as(S'us.'
p6718
tp6719
(lp6720
S'END'
p6721
aS'END'
p6722
as(S'squeeze'
p6723
tp6724
(lp6725
S'which'
p6726
as(S'relax'
p6727
tp6728
(lp6729
S'and'
p6730
aS'again.'
p6731
as(g4198
tp6732
(lp6733
S'worth'
p6734
as(g3209
tp6735
(lp6736
S'after'
p6737
aS'what'
p6738
ag35
aS'there'
p6739
as(g3263
tp6740
(lp6741
S'never'
p6742
as(S'imagery'
p6743
tp6744
(lp6745
g1605
as(S'violently.'
p6746
tp6747
(lp6748
S'END'
p6749
as(g4245
tp6750
(lp6751
S'my'
p6752
aS'the'
p6753
ag5285
aS'all'
p6754
as(g3431
tp6755
(lp6756
g35
as(g6279
tp6757
(lp6758
S'the'
p6759
as(g4473
tp6760
(lp6761
g3022
aS'gift'
p6762
as(S'divinity,'
p6763
tp6764
(lp6765
S'so'
p6766
as(S'raining'
p6767
tp6768
(lp6769
S'all'
p6770
as(g3131
tp6771
(lp6772
g173
as(S'return'
p6773
tp6774
(lp6775
S'to'
p6776
aS'to'
p6777
as(g915
tp6778
(lp6779
S'by'
p6780
as(g3558
tp6781
(lp6782
S'to'
p6783
as(S'challenge,'
p6784
tp6785
(lp6786
S'so'
p6787
aS'but'
p6788
as(g4623
tp6789
(lp6790
S'as'
p6791
aS'so'
p6792
ag5915
as(g3159
tp6793
(lp6794
S'of'
p6795
as(S'female'
p6796
tp6797
(lp6798
S'shaman,'
p6799
aS'shaman'
p6800
as(g1336
tp6801
(lp6802
S'END'
p6803
aS'END'
p6804
aS'END'
p6805
as(g1980
tp6806
(lp6807
S'warmth'
p6808
as(g6191
tp6809
(lp6810
S'with'
p6811
as(g4808
tp6812
(lp6813
S'as'
p6814
as(g6762
tp6815
(lp6816
S'that'
p6817
ag35
aS'if'
p6818
aS'get'
p6819
aS'would'
p6820
aS'had'
p6821
aS'from'
p6822
as(S'assure'
p6823
tp6824
(lp6825
S'me'
p6826
as(g5533
tp6827
(lp6828
S'they'
p6829
as(S'pad.'
p6830
tp6831
(lp6832
S'END'
p6833
as(S'still'
p6834
tp6835
(lp6836
S'have'
p6837
ag1559
ag5381
aS'fairly'
p6838
aS'so'
p6839
aS'too'
p6840
aS'felt'
p6841
aS'laying'
p6842
ag1167
aS'not'
p6843
aS'unable'
p6844
aS'there,'
p6845
aS"couldn't"
p6846
ag6565
as(S'furiously'
p6847
tp6848
(lp6849
S'when'
p6850
as(g5501
tp6851
(lp6852
S'what'
p6853
as(S'experiences'
p6854
tp6855
(lp6856
S'are'
p6857
aS'as'
p6858
aS'by'
p6859
aS'of'
p6860
as(g4320
tp6861
(lp6862
S'difficult'
p6863
aS'powerful'
p6864
as(g3293
tp6865
(lp6866
S'the'
p6867
as(g3903
tp6868
(lp6869
g2143
aS'on'
p6870
as(g447
tp6871
(lp6872
g35
as(S'go?'
p6873
tp6874
(lp6875
S'END'
p6876
as(S'sensation'
p6877
tp6878
(lp6879
S'of'
p6880
as(S'hold'
p6881
tp6882
(lp6883
S'our'
p6884
aS'your'
p6885
aS'us,'
p6886
as(g6686
tp6887
(lp6888
S'END'
p6889
as(g1105
tp6890
(lp6891
g3033
as(g4643
tp6892
(lp6893
S'angle,'
p6894
as(g4478
tp6895
(lp6896
S'states'
p6897
as(S'purposefully'
p6898
tp6899
(lp6900
S'to'
p6901
as(S'black.'
p6902
tp6903
(lp6904
S'END'
p6905
as(S'convictions'
p6906
tp6907
(lp6908
S'about'
p6909
as(S'about'
p6910
tp6911
(lp6912
S'20'
p6913
aS'their'
p6914
aS'an'
p6915
aS'that'
p6916
aS'to'
p6917
aS'my'
p6918
aS'life,'
p6919
aS'as'
p6920
aS'the'
p6921
ag3766
aS'where'
p6922
aS'personal'
p6923
aS'how'
p6924
aS'the'
p6925
aS'it'
p6926
aS'all'
p6927
aS'their'
p6928
aS'my'
p6929
aS'it.'
p6930
aS'why'
p6931
aS'to'
p6932
aS'why'
p6933
aS'the'
p6934
aS'my'
p6935
aS'things.'
p6936
aS'how'
p6937
ag173
aS'20'
p6938
aS'all'
p6939
aS'my'
p6940
aS'anything'
p6941
aS'done'
p6942
aS'half'
p6943
as(S'guide'
p6944
tp6945
(lp6946
S'our'
p6947
aS'me'
p6948
as(g4715
tp6949
(lp6950
S'existed'
p6951
as(g2102
tp6952
(lp6953
S'soup,'
p6954
as(g3077
tp6955
(lp6956
S'END'
p6957
as(g3220
tp6958
(lp6959
S'the'
p6960
aS'Cusco,'
p6961
as(g1693
tp6962
(lp6963
S'to'
p6964
aS'so'
p6965
aS'with'
p6966
aS'been'
p6967
as(g4806
tp6968
(lp6969
S'with'
p6970
as(S'untold'
p6971
tp6972
(lp6973
g6043
ag852
as(g4755
tp6974
(lp6975
S'END'
p6976
as(g2024
tp6977
(lp6978
S'had'
p6979
as(S'swept'
p6980
tp6981
(lp6982
S'out'
p6983
as(g170
tp6984
(lp6985
S'over'
p6986
ag1
aS'of'
p6987
ag3784
aS'of'
p6988
aS'of'
p6989
ag643
aS'consciousness.'
p6990
aS'life,'
p6991
aS'of'
p6992
aS'eventually'
p6993
aS'over.'
p6994
ag4980
ag6175
ag5275
ag5164
ag4129
aS'of'
p6995
ag647
aS'about'
p6996
aS'this'
p6997
aS'about'
p6998
aS'of'
p6999
aS'night'
p7000
aS'very'
p7001
aS'of'
p7002
aS'we'
p7003
aS'had'
p7004
aS'of'
p7005
aS'light'
p7006
aS'set'
p7007
aS'night'
p7008
aS'taken'
p7009
as(g1272
tp7010
(lp7011
S'in'
p7012
aS'and'
p7013
as(S'makes'
p7014
tp7015
(lp7016
g3674
as(g4260
tp7017
(lp7018
S'END'
p7019
as(g5863
tp7020
(lp7021
S'this'
p7022
as(g5258
tp7023
(lp7024
S'after'
p7025
as(g4152
tp7026
(lp7027
g2853
aS'be'
p7028
aS'it'
p7029
aS'over'
p7030
ag35
as(g3114
tp7031
(lp7032
g35
ag35
as(g1865
tp7033
(lp7034
g173
ag35
aS'as'
p7035
as(g5606
tp7036
(lp7037
S'energies'
p7038
as(S'hoarde'
p7039
tp7040
(lp7041
S'of'
p7042
as(g1392
tp7043
(lp7044
S'really'
p7045
as(g110
tp7046
(lp7047
S'into'
p7048
as(S'seeing'
p7049
tp7050
(lp7051
S'as'
p7052
aS'ghostly'
p7053
aS'vast'
p7054
as(S'under'
p7055
tp7056
(lp7057
S'his'
p7058
aS'me.'
p7059
as(g1816
tp7060
(lp7061
S'on'
p7062
as(g2021
tp7063
(lp7064
S'something'
p7065
as(g5480
tp7066
(lp7067
S'the'
p7068
aS'individual'
p7069
aS'came'
p7070
aS'way'
p7071
aS'gentle'
p7072
aS'feel'
p7073
aS'come'
p7074
as(S'or'
p7075
tp7076
(lp7077
g4121
ag1138
ag5108
aS'angels.'
p7078
aS'something'
p7079
aS'at'
p7080
aS'rock'
p7081
aS'mountain'
p7082
aS'river'
p7083
aS'something'
p7084
aS'so,'
p7085
aS'so'
p7086
ag35
aS'get'
p7087
as(S'ancient'
p7088
tp7089
(lp7090
S'songs,'
p7091
as(g4871
tp7092
(lp7093
S'END'
p7094
as(S'yoga.'
p7095
tp7096
(lp7097
S'END'
p7098
aS'END'
p7099
as(g5566
tp7100
(lp7101
S'that'
p7102
as(S'damn'
p7103
tp7104
(lp7105
S'long.'
p7106
as(g4709
tp7107
(lp7108
S'at'
p7109
as(S'(x)?'
p7110
tp7111
(lp7112
S'END'
p7113
as(S'conveying'
p7114
tp7115
(lp7116
S'in'
p7117
as(S"God's"
p7118
tp7119
(lp7120
S'name'
p7121
as(g360
tp7122
(lp7123
S'appeared'
p7124
aS'was'
p7125
ag5848
aS'of'
p7126
ag1367
aS'into'
p7127
aS'was'
p7128
as(g1294
tp7129
(lp7130
S'but'
p7131
as(g5579
tp7132
(lp7133
S'END'
p7134
as(g3282
tp7135
(lp7136
S'quite'
p7137
aS'she'
p7138
ag173
as(S'walls.'
p7139
tp7140
(lp7141
S'END'
p7142
as(S'same'
p7143
tp7144
(lp7145
S'white'
p7146
ag2169
aS'person.'
p7147
as(S'performed'
p7148
tp7149
(lp7150
S'nearly'
p7151
as(g6808
tp7152
(lp7153
S'and'
p7154
as(S'learn.'
p7155
tp7156
(lp7157
S'END'
p7158
as(g4565
tp7159
(lp7160
S'es'
p7161
ag1233
aS'idea'
p7162
aS'entities'
p7163
ag846
aS'eyes.'
p7164
ag1352
aS'longer'
p7165
aS'longer'
p7166
aS'longer'
p7167
aS'desire'
p7168
aS'idea'
p7169
ag6690
aS'longer'
p7170
as(S'memories'
p7171
tp7172
(lp7173
S'and'
p7174
as(g4384
tp7175
(lp7176
S'thoughts'
p7177
as(g4801
tp7178
(lp7179
S'END'
p7180
as(S'but'
p7181
tp7182
(lp7183
S'it'
p7184
aS'not'
p7185
ag7014
aS'not'
p7186
ag35
ag35
aS'at'
p7187
aS'swift.'
p7188
aS'fully'
p7189
aS'instead'
p7190
aS'going'
p7191
aS'still'
p7192
aS'it'
p7193
aS'it'
p7194
aS'it'
p7195
ag35
aS'which'
p7196
aS'the'
p7197
aS'she'
p7198
ag35
aS'radiance'
p7199
as(g6485
tp7200
(lp7201
S'me'
p7202
as(S'out...there'
p7203
tp7204
(lp7205
S'seemed'
p7206
as(g6182
tp7207
(lp7208
S'sound'
p7209
as(g4552
tp7210
(lp7211
S'lighting'
p7212
aS'blowing'
p7213
ag5228
ag5781
ag639
aS'that'
p7214
ag4451
aS'fractals'
p7215
aS'this'
p7216
ag618
ag35
aS'something'
p7217
aS'the'
p7218
aS'the'
p7219
aS'far.'
p7220
aS'to'
p7221
aS'the'
p7222
aS'the'
p7223
aS'the'
p7224
aS'the'
p7225
ag564
aS'the'
p7226
aS'the'
p7227
aS'these'
p7228
aS'her.'
p7229
as(g4738
tp7230
(lp7231
g6548
aS'spirits'
p7232
aS'spirits'
p7233
ag3140
ag1508
ag5464
as(S'insights'
p7234
tp7235
(lp7236
S'had'
p7237
as(S'evening.'
p7238
tp7239
(lp7240
S'END'
p7241
as(S'alien'
p7242
tp7243
(lp7244
S'whirring'
p7245
as(S'two'
p7246
tp7247
(lp7248
S'of'
p7249
ag3743
aS'other'
p7250
aS'beings'
p7251
aS'breakthrough'
p7252
aS'pieces'
p7253
aS'others'
p7254
as(g5506
tp7255
(lp7256
S'and'
p7257
aS'and'
p7258
as(S'emotional'
p7259
tp7260
(lp7261
g5878
as(S'lined'
p7262
tp7263
(lp7264
S'up'
p7265
as(g504
tp7266
(lp7267
S'made'
p7268
as(S'giver'
p7269
tp7270
(lp7271
S'of'
p7272
as(g6666
tp7273
(lp7274
S'has'
p7275
as(S'only'
p7276
tp7277
(lp7278
S'differences'
p7279
aS'way'
p7280
aS'been'
p7281
aS'thing'
p7282
as(S'awe'
p7283
tp7284
(lp7285
S'at'
p7286
as(S'sit'
p7287
tp7288
(lp7289
S'in'
p7290
as(S'happening'
p7291
tp7292
(lp7293
S'to'
p7294
as(S'gotten'
p7295
tp7296
(lp7297
S'all'
p7298
as(g4779
tp7299
(lp7300
g6233
aS'and'
p7301
aS'energies'
p7302
aS'and'
p7303
aS'with'
p7304
aS'and'
p7305
aS'and'
p7306
aS'them'
p7307
aS'and'
p7308
as(S'fill'
p7309
tp7310
(lp7311
g3759
aS'the'
p7312
as(S'ceramic'
p7313
tp7314
(lp7315
S'glasses.'
p7316
as(g5543
tp7317
(lp7318
S'that'
p7319
aS'and'
p7320
aS'for'
p7321
aS'for'
p7322
as(g4306
tp7323
(lp7324
S'to'
p7325
aS'to'
p7326
as(g2955
tp7327
(lp7328
S'the'
p7329
aS'Cusco'
p7330
ag4034
ag1714
aS'Quechua.'
p7331
aS'the'
p7332
ag3940
ag6192
ag1159
aS'the'
p7333
ag6106
aS'the'
p7334
ag4225
ag3103
aS'their'
p7335
aS'this'
p7336
aS'all'
p7337
aS'the'
p7338
aS'spirituality.'
p7339
ag5957
aS'touch'
p7340
aS'the'
p7341
ag173
aS'some'
p7342
aS'love'
p7343
aS'hyperspace'
p7344
aS'one'
p7345
aS'our'
p7346
ag173
ag173
aS'my'
p7347
aS'destiny.'
p7348
aS'joy'
p7349
aS'some'
p7350
aS'the'
p7351
ag173
aS'love'
p7352
aS'great'
p7353
ag173
aS'telepathy'
p7354
aS'my'
p7355
ag1639
aS'the'
p7356
ag173
ag636
ag4605
aS'its'
p7357
aS'its'
p7358
aS'my'
p7359
ag6085
aS'two'
p7360
aS'yoga.'
p7361
aS'the'
p7362
aS'the'
p7363
ag5646
aS'my'
p7364
aS'an'
p7365
aS'their'
p7366
aS'the'
p7367
aS'front'
p7368
aS'full'
p7369
ag7118
aS'my'
p7370
aS'front'
p7371
aS'front'
p7372
aS'our'
p7373
aS'the'
p7374
aS'raging'
p7375
ag173
aS'one'
p7376
aS'that'
p7377
aS'my'
p7378
aS'the'
p7379
ag1504
aS'the'
p7380
aS'the'
p7381
aS'the'
p7382
ag4003
aS'the'
p7383
aS'joy'
p7384
aS'my'
p7385
aS'love,'
p7386
aS'their'
p7387
aS'the'
p7388
aS'the'
p7389
aS'now.'
p7390
as(g4258
tp7391
(lp7392
S'END'
p7393
aS'END'
p7394
as(S'more'
p7395
tp7396
(lp7397
S'in'
p7398
aS'happy,'
p7399
aS'control.'
p7400
aS'complex'
p7401
aS'like'
p7402
aS'profound'
p7403
aS'respect'
p7404
aS'normal'
p7405
aS'and'
p7406
ag6704
aS'hand'
p7407
aS'grounded'
p7408
aS'times'
p7409
aS'personal'
p7410
as(g7121
tp7411
(lp7412
S'was'
p7413
as(S'also'
p7414
tp7415
(lp7416
S'known'
p7417
aS'began'
p7418
aS'had'
p7419
aS'this'
p7420
aS'all'
p7421
aS'told'
p7422
aS'started'
p7423
as(g4762
tp7424
(lp7425
S'the'
p7426
as(g6677
tp7427
(lp7428
S'have'
p7429
as(g4141
tp7430
(lp7431
S'END'
p7432
as(g4508
tp7433
(lp7434
S'END'
p7435
as(g5775
tp7436
(lp7437
S'and'
p7438
as(g5986
tp7439
(lp7440
S'with'
p7441
ag35
as(S'afterlife'
p7442
tp7443
(lp7444
S'might'
p7445
as(g942
tp7446
(lp7447
S'of'
p7448
as(S'power'
p7449
tp7450
(lp7451
S'vested'
p7452
as(g4135
tp7453
(lp7454
g5662
as(g6016
tp7455
(lp7456
S'but'
p7457
as(S'journey'
p7458
tp7459
(lp7460
S'will'
p7461
aS'we'
p7462
as(S'intertwined.'
p7463
tp7464
(lp7465
S'END'
p7466
as(S'blessed,'
p7467
tp7468
(lp7469
g35
as(g4786
tp7470
(lp7471
S'which'
p7472
as(S'again'
p7473
tp7474
(lp7475
S'as'
p7476
as(g7254
tp7477
(lp7478
S'who'
p7479
as(g1269
tp7480
(lp7481
S'as'
p7482
aS'anyway?'
p7483
as(g3446
tp7484
(lp7485
S'seemed'
p7486
as(g4339
tp7487
(lp7488
S'out.'
p7489
as(S'drink'
p7490
tp7491
(lp7492
S'it'
p7493
ag1393
aS'it'
p7494
aS'alcohol;'
p7495
aS'in'
p7496
as(S'in.'
p7497
tp7498
(lp7499
S'END'
p7500
aS'END'
p7501
as(S'ask'
p7502
tp7503
(lp7504
S'me'
p7505
aS'both'
p7506
as(g6368
tp7507
(lp7508
S'END'
p7509
as(g2010
tp7510
(lp7511
S'back'
p7512
as(g6222
tp7513
(lp7514
S'END'
p7515
as(g4174
tp7516
(lp7517
S'by'
p7518
aS'or'
p7519
as(S'experienced'
p7520
tp7521
(lp7522
S'and'
p7523
as(S'many'
p7524
tp7525
(lp7526
S'different'
p7527
ag5907
aS'experiences'
p7528
aS'colors'
p7529
aS'times'
p7530
aS'more'
p7531
as(g4209
tp7532
(lp7533
S'END'
p7534
as(S'water'
p7535
tp7536
(lp7537
g6314
aS'bottle'
p7538
aS'energy'
p7539
as(g4206
tp7540
(lp7541
S'with'
p7542
as(g7072
tp7543
(lp7544
g3107
aS'shushing'
p7545
as(S'Ayahuascero'
p7546
tp7547
(lp7548
S'played'
p7549
aS'became'
p7550
as(g4323
tp7551
(lp7552
S'END'
p7553
as(g5216
tp7554
(lp7555
S'that'
p7556
as(g7339
tp7557
(lp7558
S'END'
p7559
as(S'lacked'
p7560
tp7561
(lp7562
S'the'
p7563
as(g4839
tp7564
(lp7565
S'and'
p7566
as(g4937
tp7567
(lp7568
S'END'
p7569
as(g5225
tp7570
(lp7571
g3706
as(S'didnt'
p7572
tp7573
(lp7574
g1516
ag3527
as(g1624
tp7575
(lp7576
S'and'
p7577
as(g2090
tp7578
(lp7579
g35
as(g386
tp7580
(lp7581
S'END'
p7582
as(g7165
tp7583
(lp7584
S'afraid'
p7585
aS'the'
p7586
aS'drink'
p7587
aS'is'
p7588
aS'in'
p7589
as(S'lack'
p7590
tp7591
(lp7592
S'of'
p7593
as(g7162
tp7594
(lp7595
S'what'
p7596
aS'how'
p7597
as(S'precision'
p7598
tp7599
(lp7600
g4491
as(S'stories'
p7601
tp7602
(lp7603
S'arent'
p7604
as(g5487
tp7605
(lp7606
S'END'
p7607
as(g4156
tp7608
(lp7609
S'level,'
p7610
as(g4752
tp7611
(lp7612
S'that'
p7613
aS'and'
p7614
aS'back'
p7615
aS'all'
p7616
aS'was'
p7617
aS'and'
p7618
as(g4067
tp7619
(lp7620
S'END'
p7621
aS'END'
p7622
as(g3151
tp7623
(lp7624
S'yet'
p7625
aS'and'
p7626
as(g7124
tp7627
(lp7628
S'which'
p7629
as(g7585
tp7630
(lp7631
S'of'
p7632
as(S'kick'
p7633
tp7634
(lp7635
S'was'
p7636
aS'or'
p7637
as(g3445
tp7638
(lp7639
S'was'
p7640
as(S'him.'
p7641
tp7642
(lp7643
S'END'
p7644
as(S'stars.'
p7645
tp7646
(lp7647
S'END'
p7648
as(g6954
tp7649
(lp7650
g3888
as(S'geometrical'
p7651
tp7652
(lp7653
S'patterns,'
p7654
as(g4683
tp7655
(lp7656
g4095
aS'good,'
p7657
aS'much'
p7658
as(g6990
tp7659
(lp7660
S'END'
p7661
aS'END'
p7662
aS'END'
p7663
as(S'time'
p7664
tp7665
(lp7666
S'on'
p7667
aS'to'
p7668
aS'and'
p7669
aS'to'
p7670
aS'they'
p7671
aS'to'
p7672
as(S'itself...I'
p7673
tp7674
(lp7675
S'started'
p7676
as(g4162
tp7677
(lp7678
S'basis.'
p7679
as(g7045
tp7680
(lp7681
g1438
aS'know'
p7682
ag2197
ag5666
ag3702
aS'have'
p7683
as(S'Aya,'
p7684
tp7685
(lp7686
S'to'
p7687
as(g1946
tp7688
(lp7689
S'down'
p7690
aS'the'
p7691
as(g1263
tp7692
(lp7693
g4663
as(g3309
tp7694
(lp7695
S'started'
p7696
as(g6469
tp7697
(lp7698
S'and'
p7699
as(g4186
tp7700
(lp7701
g7095
aS'asana.'
p7702
as(g4928
tp7703
(lp7704
S'what'
p7705
as(g5893
tp7706
(lp7707
S'in'
p7708
as(g7188
tp7709
(lp7710
S'END'
p7711
as(g1519
tp7712
(lp7713
S'END'
p7714
aS'END'
p7715
as(S'shit.'
p7716
tp7717
(lp7718
S'END'
p7719
as(g238
tp7720
(lp7721
S'END'
p7722
aS'END'
p7723
as(g994
tp7724
(lp7725
S'was'
p7726
aS'felt'
p7727
aS'started'
p7728
aS'that'
p7729
ag1424
ag35
aS'was'
p7730
as(S'doubt'
p7731
tp7732
(lp7733
S'was'
p7734
as(S'identical'
p7735
tp7736
(lp7737
S'to'
p7738
as(S'first,'
p7739
tp7740
(lp7741
S'my'
p7742
as(S'next.'
p7743
tp7744
(lp7745
S'END'
p7746
aS'END'
p7747
as(g5567
tp7748
(lp7749
S'END'
p7750
as(S'roof'
p7751
tp7752
(lp7753
S'at'
p7754
as(g3947
tp7755
(lp7756
S'END'
p7757
as(S'rejoin'
p7758
tp7759
(lp7760
S'the'
p7761
as(S'never'
p7762
tp7763
(lp7764
S'be'
p7765
aS'thought'
p7766
aS'returned'
p7767
aS'felt'
p7768
aS'forget'
p7769
aS'felt'
p7770
aS'felt'
p7771
as(g3036
tp7772
(lp7773
S'that'
p7774
as(g1742
tp7775
(lp7776
S'of'
p7777
as(S'took'
p7778
tp7779
(lp7780
S'an'
p7781
aS'over'
p7782
aS'my'
p7783
as(g7400
tp7784
(lp7785
S'END'
p7786
as(S'ok?'
p7787
tp7788
(lp7789
S'END'
p7790
as(g7407
tp7791
(lp7792
g6723
as(g3572
tp7793
(lp7794
S'END'
p7795
aS'END'
p7796
as(S'evoke'
p7797
tp7798
(lp7799
S'visual'
p7800
as(S'consciously'
p7801
tp7802
(lp7803
S'understand'
p7804
as(S'do'
p7805
tp7806
(lp7807
S'this'
p7808
aS'or'
p7809
aS'yoga'
p7810
aS'have'
p7811
aS'it'
p7812
aS'was'
p7813
ag173
as(S'present'
p7814
tp7815
(lp7816
S'moment.'
p7817
as(g4848
tp7818
(lp7819
g3136
as(g6
tp7820
(lp7821
S'and'
p7822
aS'but'
p7823
aS'the'
p7824
ag1256
aS'something'
p7825
as(g6013
tp7826
(lp7827
S'and'
p7828
as(g4756
tp7829
(lp7830
S'my'
p7831
as(g6280
tp7832
(lp7833
S'each'
p7834
as(S'ERUPTED.'
p7835
tp7836
(lp7837
S'END'
p7838
as(g6651
tp7839
(lp7840
S'brought'
p7841
aS'and'
p7842
as(g6922
tp7843
(lp7844
S'my'
p7845
aS'the'
p7846
aS'to'
p7847
aS'things'
p7848
aS'we'
p7849
as(g748
tp7850
(lp7851
S'END'
p7852
aS'END'
p7853
as(g4120
tp7854
(lp7855
S'END'
p7856
aS'END'
p7857
aS'END'
p7858
as(g5963
tp7859
(lp7860
S'made'
p7861
as(S'out.'
p7862
tp7863
(lp7864
S'END'
p7865
aS'END'
p7866
aS'END'
p7867
as(g3305
tp7868
(lp7869
S'everything'
p7870
aS'that'
p7871
as(S'float'
p7872
tp7873
(lp7874
S'out'
p7875
as(g2937
tp7876
(lp7877
g6229
ag1348
aS'the'
p7878
ag7309
aS'the'
p7879
ag7490
aS'see'
p7880
aS'see'
p7881
ag6327
ag6618
ag4007
aS'be'
p7882
aS'come'
p7883
aS'think'
p7884
ag944
ag6944
ag7797
aS'provoke'
p7885
aS'be'
p7886
ag4068
ag4501
aS'me'
p7887
aS'guess,'
p7888
aS'these'
p7889
aS'the'
p7890
aS'be'
p7891
ag1617
aS'fully'
p7892
ag7805
ag686
ag1479
aS'the'
p7893
ag592
ag5431
aS'me?'
p7894
aS'enter'
p7895
aS'think'
p7896
ag5680
aS'understand'
p7897
aS'uncontrollably'
p7898
ag173
aS'an'
p7899
aS'guide'
p7900
ag7872
aS'be'
p7901
aS'my'
p7902
aS'my'
p7903
ag6773
aS'that'
p7904
aS'imagine'
p7905
ag3755
aS'at'
p7906
aS'use'
p7907
ag568
aS'come;'
p7908
ag7155
ag311
aS'the'
p7909
aS'find'
p7910
aS'the'
p7911
aS'get'
p7912
aS'my'
p7913
ag3928
ag3687
aS'the'
p7914
aS'cuddle'
p7915
aS'me.'
p7916
ag3955
aS'get'
p7917
ag2092
aS'be'
p7918
aS'think'
p7919
aS'me'
p7920
aS'ask'
p7921
aS'say'
p7922
aS'another'
p7923
aS'get'
p7924
aS'the'
p7925
ag3562
ag2244
aS'talk'
p7926
aS'my'
p7927
aS'talk'
p7928
aS'me.'
p7929
aS'me'
p7930
aS'me'
p7931
aS'form'
p7932
aS'me'
p7933
aS'think'
p7934
aS'me'
p7935
aS'become'
p7936
aS'get'
p7937
aS'me'
p7938
ag2322
aS'head'
p7939
aS'the'
p7940
ag7758
aS'begin'
p7941
aS'weep'
p7942
ag3723
aS'my'
p7943
aS'think'
p7944
aS'get'
p7945
aS'show'
p7946
aS'see'
p7947
ag5632
aS'my'
p7948
ag6763
ag329
aS'do'
p7949
aS'think'
p7950
aS'work'
p7951
ag1475
aS'go'
p7952
aS'assume'
p7953
aS'keep'
p7954
aS'me'
p7955
aS'figure'
p7956
aS'perfect'
p7957
aS'keep'
p7958
aS'divinitys'
p7959
ag3807
aS'catch'
p7960
aS'go'
p7961
aS'it'
p7962
ag6727
aS'them'
p7963
aS'the'
p7964
aS'3'
p7965
aS'do'
p7966
aS'hanging'
p7967
aS'be'
p7968
aS'my'
p7969
aS'life'
p7970
aS'oil'
p7971
aS'sleep.'
p7972
aS'the'
p7973
ag4057
aS'catch'
p7974
aS'look'
p7975
aS'clarify'
p7976
aS'me'
p7977
aS'be'
p7978
aS'sleep'
p7979
aS'make'
p7980
aS'the'
p7981
aS'come'
p7982
aS'do'
p7983
ag6881
aS'break'
p7984
ag4988
aS'the'
p7985
aS'move.'
p7986
aS'my'
p7987
aS'purge.'
p7988
ag5318
aS'take'
p7989
aS'purge.'
p7990
aS'see'
p7991
aS'let'
p7992
ag5123
aS'my'
p7993
aS'do'
p7994
ag7731
aS'hold'
p7995
aS'move.'
p7996
ag560
aS'the'
p7997
aS'sweat'
p7998
aS'purge'
p7999
aS'be'
p8000
aS'muster'
p8001
ag5883
aS'the'
p8002
aS'speak.'
p8003
aS'purge'
p8004
ag1527
aS'lose'
p8005
aS'me'
p8006
ag182
ag1555
ag3773
aS'me'
p8007
ag7287
aS'the'
p8008
aS'my'
p8009
aS'me,'
p8010
aS'surrender'
p8011
aS'keep'
p8012
aS'feel'
p8013
aS'purge.'
p8014
aS'open.'
p8015
aS'flood'
p8016
aS'come'
p8017
ag5374
aS'stop'
p8018
aS'go'
p8019
aS'me'
p8020
ag2187
aS'everyone'
p8021
aS'me,'
p8022
aS'me,'
p8023
aS'having'
p8024
aS'explore'
p8025
ag5152
aS'offer'
p8026
aS'come'
p8027
aS'see'
p8028
ag6971
aS'me,'
p8029
ag6092
aS'an'
p8030
aS'calm'
p8031
aS'give'
p8032
aS'throw'
p8033
ag6384
aS'go'
p8034
aS'the'
p8035
aS'me.'
p8036
aS'be'
p8037
ag173
aS'those'
p8038
aS'my'
p8039
as(g1981
tp8040
(lp8041
S'END'
p8042
as(S'dripping'
p8043
tp8044
(lp8045
S'down'
p8046
as(S'bond,'
p8047
tp8048
(lp8049
S'and'
p8050
as(S'accepted'
p8051
tp8052
(lp8053
S'God,'
p8054
as(g8001
tp8055
(lp8056
S'up'
p8057
as(g1884
tp8058
(lp8059
g5953
as(g7078
tp8060
(lp8061
S'END'
p8062
as(g7880
tp8063
(lp8064
S'the'
p8065
ag7651
aS'my'
p8066
aS'the'
p8067
aS'and'
p8068
aS'and'
p8069
aS'him,'
p8070
aS'into'
p8071
aS'around'
p8072
aS'incredibly'
p8073
aS'how'
p8074
as(g4935
tp8075
(lp8076
S'that'
p8077
aS'me'
p8078
as(S'wave'
p8079
tp8080
(lp8081
S'that'
p8082
as(g3359
tp8083
(lp8084
S'went'
p8085
aS'for'
p8086
as(S'heard,'
p8087
tp8088
(lp8089
g7075
as(S'forth'
p8090
tp8091
(lp8092
S'to'
p8093
as(S'carrier'
p8094
tp8095
(lp8096
g8079
as(g152
tp8097
(lp8098
S'of'
p8099
aS'of'
p8100
aS'and'
p8101
aS'itself'
p8102
aS'thing'
p8103
as(g3192
tp8104
(lp8105
g6406
aS'if'
p8106
as(S'cosmos...I'
p8107
tp8108
(lp8109
S'could'
p8110
as(g4155
tp8111
(lp8112
g7259
aS'in'
p8113
aS'inside'
p8114
aS'in'
p8115
aS'horse'
p8116
aS'in'
p8117
as(S'bed-mats'
p8118
tp8119
(lp8120
S'with'
p8121
as(S'understand.'
p8122
tp8123
(lp8124
S'END'
p8125
as(g1038
tp8126
(lp8127
g35
as(g4140
tp8128
(lp8129
g6823
as(g5933
tp8130
(lp8131
S'it'
p8132
as(g4252
tp8133
(lp8134
S'in'
p8135
as(g938
tp8136
(lp8137
g4430
as(S'rational,'
p8138
tp8139
(lp8140
g4571
as(S'together.'
p8141
tp8142
(lp8143
S'END'
p8144
aS'END'
p8145
as(S'laced'
p8146
tp8147
(lp8148
S'with'
p8149
as(g3478
tp8150
(lp8151
g35
as(g6292
tp8152
(lp8153
g6172
as(g1302
tp8154
(lp8155
S'played'
p8156
aS'started'
p8157
as(S'arcade'
p8158
tp8159
(lp8160
g5134
as(g4234
tp8161
(lp8162
S'to'
p8163
aS'in'
p8164
aS'to'
p8165
aS'on'
p8166
as(S'clouds.'
p8167
tp8168
(lp8169
S'END'
p8170
as(S'flickering'
p8171
tp8172
(lp8173
g6847
as(g6844
tp8174
(lp8175
S'to'
p8176
aS'to'
p8177
as(S'realize'
p8178
tp8179
(lp8180
S'that'
p8181
as(g4235
tp8182
(lp8183
g6168
as(S'wonderfulness'
p8184
tp8185
(lp8186
S'of'
p8187
as(g1868
tp8188
(lp8189
S'END'
p8190
as(S'violent'
p8191
tp8192
(lp8193
S'and'
p8194
as(g1915
tp8195
(lp8196
S'itself'
p8197
as(g4304
tp8198
(lp8199
S'END'
p8200
as(S'fight'
p8201
tp8202
(lp8203
S'broke'
p8204
as(g6919
tp8205
(lp8206
S'my'
p8207
aS'and'
p8208
aS'the'
p8209
as(g7923
tp8210
(lp8211
g2103
ag3065
aS'long'
p8212
aS'purge'
p8213
as(S'hesitate'
p8214
tp8215
(lp8216
S'to'
p8217
as(g5630
tp8218
(lp8219
S'END'
p8220
as(g7905
tp8221
(lp8222
S'what'
p8223
aS'what'
p8224
as(g3420
tp8225
(lp8226
g35
as(g3765
tp8227
(lp8228
S'dream,'
p8229
as(S'understanding'
p8230
tp8231
(lp8232
S'that'
p8233
ag2062
aS'with'
p8234
as(S'pitched'
p8235
tp8236
(lp8237
g1190
as(S'greatest'
p8238
tp8239
(lp8240
S'gift'
p8241
as(S'oil'
p8242
tp8243
(lp8244
g6033
aS'and'
p8245
as(g7054
tp8246
(lp8247
S'numbers'
p8248
as(S'motherly,'
p8249
tp8250
(lp8251
S'which'
p8252
as(g6623
tp8253
(lp8254
S'hold'
p8255
aS'make'
p8256
as(g3053
tp8257
(lp8258
S'END'
p8259
as(S'overhearing'
p8260
tp8261
(lp8262
S'conversations'
p8263
as(g3052
tp8264
(lp8265
S'to'
p8266
as(g7268
tp8267
(lp8268
S'me'
p8269
aS'of'
p8270
aS'it'
p8271
aS'up'
p8272
ag173
aS'of'
p8273
aS'me'
p8274
aS'me'
p8275
aS'it'
p8276
aS'of'
p8277
as(g4094
tp8278
(lp8279
S'you.'
p8280
as(g1924
tp8281
(lp8282
S'my'
p8283
as(g7965
tp8284
(lp8285
S'hours'
p8286
as(g2297
tp8287
(lp8288
S'sometimes'
p8289
as(S'lights.'
p8290
tp8291
(lp8292
S'END'
p8293
as(S'transcendence.'
p8294
tp8295
(lp8296
S'END'
p8297
as(g6568
tp8298
(lp8299
S'my'
p8300
as(g3339
tp8301
(lp8302
S'before'
p8303
as(S'disrespectful'
p8304
tp8305
(lp8306
S'and'
p8307
as(g5733
tp8308
(lp8309
S'as'
p8310
aS'for'
p8311
aS'to'
p8312
aS'and'
p8313
aS'up'
p8314
as(g734
tp8315
(lp8316
S'END'
p8317
as(g4771
tp8318
(lp8319
S'END'
p8320
as(g1695
tp8321
(lp8322
S'END'
p8323
as(S'distinctly'
p8324
tp8325
(lp8326
S'remember'
p8327
as(S'wave.'
p8328
tp8329
(lp8330
S'END'
p8331
as(g4274
tp8332
(lp8333
S'and'
p8334
aS'at'
p8335
as(S'hereby'
p8336
tp8337
(lp8338
S'grant'
p8339
as(S'warrior'
p8340
tp8341
(lp8342
S'regalia,'
p8343
as(S'tighter'
p8344
tp8345
(lp8346
S'so'
p8347
as(S'top'
p8348
tp8349
(lp8350
g5473
aS'of'
p8351
as(S'freaked'
p8352
tp8353
(lp8354
S'me'
p8355
as(g866
tp8356
(lp8357
S'END'
p8358
as(S'amused'
p8359
tp8360
(lp8361
S'me,'
p8362
as(S'entirely'
p8363
tp8364
(lp8365
S'too'
p8366
ag813
as(g3147
tp8367
(lp8368
S'any'
p8369
as(S'uncomfortable.'
p8370
tp8371
(lp8372
S'END'
p8373
as(S'hate,'
p8374
tp8375
(lp8376
S'and'
p8377
as(S'expression'
p8378
tp8379
(lp8380
S'of'
p8381
as(g7907
tp8382
(lp8383
g1118
aS'their'
p8384
ag5247
as(g105
tp8385
(lp8386
S'and'
p8387
as(g1897
tp8388
(lp8389
S'all'
p8390
ag8047
ag2159
aS'wonderful'
p8391
aS"woman.'"
p8392
as(S'rivers'
p8393
tp8394
(lp8395
S'and'
p8396
as(S'couldnt'
p8397
tp8398
(lp8399
g8122
aS'comprehend'
p8400
aS'feel'
p8401
as(g2962
tp8402
(lp8403
S'and'
p8404
aS'it'
p8405
as(g7953
tp8406
(lp8407
S'next'
p8408
as(g7986
tp8409
(lp8410
S'END'
p8411
aS'END'
p8412
aS'END'
p8413
as(g6362
tp8414
(lp8415
S'about'
p8416
as(S'stress,'
p8417
tp8418
(lp8419
g8374
as(S'engulfed'
p8420
tp8421
(lp8422
S'with'
p8423
as(g4781
tp8424
(lp8425
S'with'
p8426
ag8043
as(S'slipped'
p8427
tp8428
(lp8429
S'into'
p8430
as(S'same.'
p8431
tp8432
(lp8433
S'END'
p8434
as(g2007
tp8435
(lp8436
S'END'
p8437
as(S'bitter'
p8438
tp8439
(lp8440
S'wine,'
p8441
as(g4840
tp8442
(lp8443
S'one'
p8444
as(g1883
tp8445
(lp8446
g173
as(S'hour'
p8447
tp8448
(lp8449
S'of'
p8450
aS'or'
p8451
aS'was'
p8452
as(g7147
tp8453
(lp8454
S'END'
p8455
as(g3992
tp8456
(lp8457
S'happens'
p8458
aS'but'
p8459
as(S'trust'
p8460
tp8461
(lp8462
S'myself,'
p8463
aS'my'
p8464
as(g2224
tp8465
(lp8466
S'allowed'
p8467
aS'evokes'
p8468
aS'jolted'
p8469
aS'ranged'
p8470
aS'puzzled'
p8471
aS'gave'
p8472
aS'felt'
p8473
ag2163
ag35
aS'felt'
p8474
aS'made'
p8475
aS'one'
p8476
aS'would'
p8477
as(g4278
tp8478
(lp8479
S'END'
p8480
as(S'were'
p8481
tp8482
(lp8483
g7262
aS'some'
p8484
ag1490
aS'some'
p8485
ag7524
ag6028
aS'not'
p8486
aS'to'
p8487
aS'plant'
p8488
aS'responsible'
p8489
ag1465
aS'real,'
p8490
ag2150
aS'felt,'
p8491
aS'flowing'
p8492
ag7114
aS'the'
p8493
aS'merely'
p8494
aS'no'
p8495
aS'too'
p8496
aS'deep'
p8497
aS'two'
p8498
ag5161
aS'going.'
p8499
aS'talking'
p8500
ag263
aS'told'
p8501
aS'also'
p8502
ag5443
ag6980
aS'lying'
p8503
ag7684
aS'starting'
p8504
aS'closest'
p8505
aS'definitely'
p8506
ag8146
aS'spent'
p8507
aS'my'
p8508
as(S'unholy'
p8509
tp8510
(lp8511
g3079
as(S'full'
p8512
tp8513
(lp8514
S'of'
p8515
ag8340
as(g1882
tp8516
(lp8517
S'my'
p8518
as(g3238
tp8519
(lp8520
S'this'
p8521
aS'the'
p8522
as(S'ayahuasca'
p8523
tp8524
(lp8525
S'to'
p8526
ag5923
ag4354
as(g2033
tp8527
(lp8528
g3993
as(S'wrapping'
p8529
tp8530
(lp8531
g5743
as(g1937
tp8532
(lp8533
S'END'
p8534
as(g3753
tp8535
(lp8536
S'and'
p8537
aS'and'
p8538
ag2305
as(g3709
tp8539
(lp8540
S'so'
p8541
as(g3440
tp8542
(lp8543
S'when'
p8544
as(g4215
tp8545
(lp8546
S'and'
p8547
as(S'three'
p8548
tp8549
(lp8550
g8118
as(S"blessed,'"
p8551
tp8552
(lp8553
S'from'
p8554
as(S'reality'
p8555
tp8556
(lp8557
g35
as(g1609
tp8558
(lp8559
S'my'
p8560
aS'to'
p8561
aS'to'
p8562
as(S'stress'
p8563
tp8564
(lp8565
S'that'
p8566
as(S'welcomed'
p8567
tp8568
(lp8569
S'the'
p8570
as(g4256
tp8571
(lp8572
S'and'
p8573
as(g4171
tp8574
(lp8575
S'that'
p8576
as(S'definitely'
p8577
tp8578
(lp8579
S'possible.'
p8580
ag173
aS'has'
p8581
as(g1877
tp8582
(lp8583
g8294
as(g4169
tp8584
(lp8585
S'but'
p8586
as(g5477
tp8587
(lp8588
g8481
as(g3380
tp8589
(lp8590
S'love'
p8591
as(S'held'
p8592
tp8593
(lp8594
S'the'
p8595
as(g7452
tp8596
(lp8597
S'in'
p8598
as(g7069
tp8599
(lp8600
g6380
as(g7954
tp8601
(lp8602
S'it'
p8603
ag3836
aS'bubbling'
p8604
aS'me'
p8605
as(S'sides.'
p8606
tp8607
(lp8608
S'END'
p8609
as(g8467
tp8610
(lp8611
S'me'
p8612
as(g3172
tp8613
(lp8614
g4976
ag6598
aS'can'
p8615
aS'went'
p8616
aS'spent'
p8617
aS'were'
p8618
aS'were'
p8619
aS'went,'
p8620
as(S'started'
p8621
tp8622
(lp8623
S'rising'
p8624
aS'moving'
p8625
ag1664
aS'come'
p8626
aS'out'
p8627
aS'moving,'
p8628
aS'to'
p8629
aS'to'
p8630
aS'to'
p8631
aS'to'
p8632
aS'to'
p8633
ag5280
aS'to'
p8634
aS'to'
p8635
aS'to'
p8636
aS'feeling'
p8637
ag4433
aS'laughing'
p8638
aS'having'
p8639
aS'to'
p8640
aS'to'
p8641
as(g6658
tp8642
(lp8643
S'some'
p8644
ag4468
aS'they'
p8645
aS'if'
p8646
ag173
aS'somebody'
p8647
ag35
aS'my'
p8648
aS'ayahuasca'
p8649
aS'the'
p8650
ag173
ag173
aS'each'
p8651
aS'we'
p8652
ag173
aS'an'
p8653
aS'she'
p8654
ag4583
ag6331
aS'me'
p8655
aS'they'
p8656
aS'that'
p8657
aS'that.'
p8658
aS'doing'
p8659
aS'an'
p8660
ag3731
ag35
aS'the'
p8661
aS'days.'
p8662
aS'the'
p8663
ag35
aS'anymore'
p8664
ag5650
ag173
as(g3683
tp8665
(lp8666
g1149
ag7502
aS'still'
p8667
ag4554
aS'ask.'
p8668
ag1531
ag2191
aS'speak'
p8669
aS'say'
p8670
aS'actually'
p8671
aS'fully'
p8672
aS'be'
p8673
aS'feel'
p8674
aS'be'
p8675
aS'be'
p8676
aS'have'
p8677
aS'like'
p8678
aS'be'
p8679
aS'unfold'
p8680
aS'move'
p8681
aS'be'
p8682
aS'not'
p8683
aS'not'
p8684
aS'be'
p8685
aS'not'
p8686
aS'occasionally'
p8687
aS'be'
p8688
aS'like'
p8689
aS'not'
p8690
as(g8016
tp8691
(lp8692
S'into'
p8693
as(g6539
tp8694
(lp8695
S'END'
p8696
as(g4193
tp8697
(lp8698
S'of'
p8699
as(g2887
tp8700
(lp8701
g65
aS'fast'
p8702
aS'bright'
p8703
aS'much'
p8704
aS'my'
p8705
ag35
ag35
ag35
ag6475
aS'much'
p8706
ag7103
ag8512
aS'hard'
p8707
ag35
aS'well.'
p8708
ag528
ag4612
ag35
aS'out'
p8709
ag35
ag35
aS'and'
p8710
aS'as'
p8711
ag1163
aS'and'
p8712
aS'badly'
p8713
ag614
aS'much'
p8714
aS'much'
p8715
aS'hard'
p8716
aS'hard'
p8717
aS'much...there'
p8718
ag5964
aS'close'
p8719
aS'loved'
p8720
aS'connected'
p8721
ag7467
ag8551
as(g7781
tp8722
(lp8723
g5864
ag1613
ag3735
ag868
ag8447
aS'out'
p8724
ag5099
ag6624
ag8378
ag8242
ag8230
ag149
aS'hour'
p8725
ag3037
aS'almost'
p8726
ag8090
aS'entire'
p8727
aS'extremely'
p8728
aS'infinite'
p8729
aS'angel,'
p8730
aS'understanding'
p8731
as(g6537
tp8732
(lp8733
S'if'
p8734
as(S'balanced'
p8735
tp8736
(lp8737
S'on'
p8738
as(S'blanket.'
p8739
tp8740
(lp8741
S'END'
p8742
as(g8488
tp8743
(lp8744
S'spirits.'
p8745
aS'had'
p8746
as(S'him'
p8747
tp8748
(lp8749
g4111
aS'out.'
p8750
aS'know'
p8751
aS'was'
p8752
ag35
as(g3423
tp8753
(lp8754
S'an'
p8755
as(S'everyone,'
p8756
tp8757
(lp8758
S'and'
p8759
as(S'presence;'
p8760
tp8761
(lp8762
S'the'
p8763
as(g5254
tp8764
(lp8765
S'in'
p8766
as(S'rabbis.'
p8767
tp8768
(lp8769
S'END'
p8770
as(g7549
tp8771
(lp8772
S'sacred'
p8773
ag173
ag6491
as(g3187
tp8774
(lp8775
S'felt'
p8776
aS'felt'
p8777
aS'asked'
p8778
aS'said,'
p8779
ag2799
aS'said'
p8780
aS'purged'
p8781
aS'had'
p8782
aS'definitely'
p8783
as(g2011
tp8784
(lp8785
S'heave.'
p8786
as(g7082
tp8787
(lp8788
S'or'
p8789
as(g3287
tp8790
(lp8791
g3505
ag7633
as(g3926
tp8792
(lp8793
S'the'
p8794
as(g1562
tp8795
(lp8796
S'END'
p8797
as(S'tucking'
p8798
tp8799
(lp8800
S'them'
p8801
as(g6317
tp8802
(lp8803
S'with'
p8804
aS'with'
p8805
aS'with'
p8806
aS'with'
p8807
aS'with'
p8808
aS'with'
p8809
aS'my'
p8810
as(S'kept'
p8811
tp8812
(lp8813
S'on'
p8814
ag959
ag8260
ag4521
aS'tapping'
p8815
ag3965
as(g8499
tp8816
(lp8817
S'END'
p8818
as(S'spirits'
p8819
tp8820
(lp8821
S'or'
p8822
aS'had'
p8823
aS'would'
p8824
aS'were'
p8825
ag6575
aS'was'
p8826
aS'would'
p8827
aS'that'
p8828
ag6873
aS'are'
p8829
as(g1290
tp8830
(lp8831
S'who'
p8832
aS'would'
p8833
as(g7025
tp8834
(lp8835
g6910
aS'about'
p8836
aS'thinking'
p8837
aS'death'
p8838
ag3165
aS'this'
p8839
as(g3205
tp8840
(lp8841
S'of'
p8842
aS'talked'
p8843
as(g4137
tp8844
(lp8845
S'with'
p8846
aS'about'
p8847
as(g4409
tp8848
(lp8849
S'with'
p8850
as(g4217
tp8851
(lp8852
S'sense'
p8853
as(g5238
tp8854
(lp8855
S'by'
p8856
aS'and'
p8857
as(g5350
tp8858
(lp8859
S'END'
p8860
as(g8005
tp8861
(lp8862
S'focus'
p8863
as(g4167
tp8864
(lp8865
S'but'
p8866
as(g707
tp8867
(lp8868
g7313
as(g3234
tp8869
(lp8870
S'with'
p8871
as(g4413
tp8872
(lp8873
S'END'
p8874
aS'END'
p8875
as(g3411
tp8876
(lp8877
S'much'
p8878
as(g3980
tp8879
(lp8880
S'and'
p8881
as(g8617
tp8882
(lp8883
g35
aS'in'
p8884
aS'in'
p8885
as(g7212
tp8886
(lp8887
g173
as(S'decide'
p8888
tp8889
(lp8890
S'that'
p8891
as(g8730
tp8892
(lp8893
S'like'
p8894
as(g7959
tp8895
(lp8896
g5016
as(g47
tp8897
(lp8898
S'that'
p8899
as(S'random'
p8900
tp8901
(lp8902
g7716
as(S'relief,'
p8903
tp8904
(lp8905
S'that'
p8906
as(g4728
tp8907
(lp8908
S'snuck'
p8909
as(g7483
tp8910
(lp8911
S'END'
p8912
as(S'drink,'
p8913
tp8914
(lp8915
S'then'
p8916
aS'the'
p8917
as(g5071
tp8918
(lp8919
S'to'
p8920
aS'so'
p8921
aS'to'
p8922
as(g4776
tp8923
(lp8924
S'and'
p8925
aS'and'
p8926
aS'to'
p8927
as(g5370
tp8928
(lp8929
S'to'
p8930
as(S'disgusting'
p8931
tp8932
(lp8933
S'as'
p8934
as(g4694
tp8935
(lp8936
S'some'
p8937
aS'self-actualized,'
p8938
aS'like'
p8939
aS'more'
p8940
as(g567
tp8941
(lp8942
S'about'
p8943
as(g4179
tp8944
(lp8945
S'or'
p8946
as(g7998
tp8947
(lp8948
S'profusely'
p8949
as(g3405
tp8950
(lp8951
S'was'
p8952
as(g2008
tp8953
(lp8954
S'it'
p8955
as(S'sacred'
p8956
tp8957
(lp8958
S'to'
p8959
aS'songs,'
p8960
as(g3795
tp8961
(lp8962
g173
ag1380
aS'never'
p8963
aS'we'
p8964
ag6401
aS'be'
p8965
ag6307
aS'and'
p8966
as(g1306
tp8967
(lp8968
S'END'
p8969
as(g3244
tp8970
(lp8971
S'soon'
p8972
as(g5518
tp8973
(lp8974
S'is'
p8975
as(g4208
tp8976
(lp8977
S'switch,'
p8978
as(g3427
tp8979
(lp8980
S'people'
p8981
as(g203
tp8982
(lp8983
S'and'
p8984
as(g5777
tp8985
(lp8986
S'of'
p8987
as(g5989
tp8988
(lp8989
S'light,'
p8990
as(g8116
tp8991
(lp8992
g5202
as(g5434
tp8993
(lp8994
S'did'
p8995
aS'is'
p8996
as(S'go.'
p8997
tp8998
(lp8999
S'END'
p9000
aS'END'
p9001
as(g2142
tp9002
(lp9003
S'let'
p9004
as(S'darkness.'
p9005
tp9006
(lp9007
S'END'
p9008
as(g1869
tp9009
(lp9010
S'through'
p9011
aS'deep'
p9012
ag8363
aS'HUGE,'
p9013
as(g1917
tp9014
(lp9015
S'END'
p9016
aS'END'
p9017
as(S'forefront'
p9018
tp9019
(lp9020
S'of'
p9021
as(g7348
tp9022
(lp9023
S'END'
p9024
as(g1808
tp9025
(lp9026
S'was'
p9027
as(S'saw'
p9028
tp9029
(lp9030
S'the'
p9031
aS'and'
p9032
aS'shadows'
p9033
as(g7053
tp9034
(lp9035
S'images'
p9036
as(S'we'
p9037
tp9038
(lp9039
g7778
aS'have'
p9040
ag545
aS'were'
p9041
aS'had'
p9042
ag1408
aS'were'
p9043
aS'would'
p9044
aS'use'
p9045
aS'need'
p9046
aS'really'
p9047
aS'talk'
p9048
aS'met?'
p9049
ag483
aS'had'
p9050
aS'can'
p9051
aS'die'
p9052
aS'go'
p9053
aS'love'
p9054
aS'had'
p9055
ag2072
as(S'disappointed.'
p9056
tp9057
(lp9058
S'END'
p9059
as(g5516
tp9060
(lp9061
g488
as(g4798
tp9062
(lp9063
S'to'
p9064
as(S'rearranged'
p9065
tp9066
(lp9067
S'themselves'
p9068
as(g6689
tp9069
(lp9070
S'and'
p9071
as(g8070
tp9072
(lp9073
S'to'
p9074
aS'but'
p9075
as(S'outhouse.'
p9076
tp9077
(lp9078
S'END'
p9079
as(g3350
tp9080
(lp9081
g35
as(S'consciousness,'
p9082
tp9083
(lp9084
S'and'
p9085
as(S'performing'
p9086
tp9087
(lp9088
S'some'
p9089
as(S'aya'
p9090
tp9091
(lp9092
S'experience'
p9093
aS'is'
p9094
as(g1017
tp9095
(lp9096
S'us'
p9097
as(g3332
tp9098
(lp9099
S'at'
p9100
as(g2924
tp9101
(lp9102
g1739
aS'travel'
p9103
ag6511
ag1621
aS'were'
p9104
as(S'group,'
p9105
tp9106
(lp9107
S'when'
p9108
ag3275
as(S'enough'
p9109
tp9110
(lp9111
S'to'
p9112
aS'condition'
p9113
aS'to'
p9114
as(g3185
tp9115
(lp9116
S'were'
p9117
aS'were'
p9118
aS'were'
p9119
aS'is'
p9120
aS'is'
p9121
as(S'galaxies'
p9122
tp9123
(lp9124
S'and'
p9125
as(g3292
tp9126
(lp9127
S'it'
p9128
ag35
aS'soon'
p9129
ag35
aS'he'
p9130
as(g7316
tp9131
(lp9132
S'END'
p9133
as(g4178
tp9134
(lp9135
S'they'
p9136
aS'further'
p9137
as(g772
tp9138
(lp9139
S'about'
p9140
as(g4684
tp9141
(lp9142
S'END'
p9143
as(S'tests'
p9144
tp9145
(lp9146
S'for'
p9147
as(g6039
tp9148
(lp9149
S'or'
p9150
as(g3402
tp9151
(lp9152
S'this'
p9153
as(g2998
tp9154
(lp9155
S'END'
p9156
as(S'first.'
p9157
tp9158
(lp9159
S'END'
p9160
as(g882
tp9161
(lp9162
S'by'
p9163
as(S'circle'
p9164
tp9165
(lp9166
S'had'
p9167
aS'and'
p9168
ag7673
aS'was'
p9169
as(g1152
tp9170
(lp9171
g173
aS'to'
p9172
aS'to'
p9173
ag6446
aS'that'
p9174
aS'to'
p9175
ag2333
aS'that'
p9176
aS'through'
p9177
aS'of'
p9178
aS'in'
p9179
ag8900
aS'feel'
p9180
aS'this'
p9181
ag7862
aS'the'
p9182
aS'of'
p9183
ag7743
aS'and'
p9184
aS'back.'
p9185
aS'on'
p9186
aS'that'
p9187
ag8344
aS'how'
p9188
aS'to'
p9189
aS'and'
p9190
aS'about'
p9191
aS'about'
p9192
aS'about'
p9193
aS'about'
p9194
aS'and'
p9195
aS'and'
p9196
aS'that'
p9197
aS'why'
p9198
aS'for'
p9199
aS'that'
p9200
aS'any'
p9201
aS'to'
p9202
aS'love'
p9203
ag393
aS'where'
p9204
aS'that'
p9205
aS'to'
p9206
aS'yet.'
p9207
aS'in'
p9208
aS'all'
p9209
aS'and'
p9210
aS'and'
p9211
aS'of'
p9212
aS'were'
p9213
aS'was'
p9214
aS'almost'
p9215
ag35
ag173
aS'and'
p9216
aS'if'
p9217
aS'to'
p9218
aS'to'
p9219
aS'and'
p9220
aS'over'
p9221
aS'one'
p9222
ag4532
aS'and'
p9223
aS'that'
p9224
aS'from'
p9225
aS'started'
p9226
ag35
aS'in'
p9227
ag7835
ag1710
aS'more'
p9228
ag173
aS'it'
p9229
ag7203
as(g7657
tp9230
(lp9231
g7049
as(S'holes'
p9232
tp9233
(lp9234
g6069
as(g4624
tp9235
(lp9236
S'because'
p9237
as(S'pot.'
p9238
tp9239
(lp9240
S'END'
p9241
as(g4101
tp9242
(lp9243
g9086
aS'or'
p9244
as(g1848
tp9245
(lp9246
S'beckoned'
p9247
aS'and'
p9248
aS'had'
p9249
aS'could'
p9250
aS'was'
p9251
aS'had'
p9252
aS'was'
p9253
ag1835
ag3876
aS'does'
p9254
as(g5787
tp9255
(lp9256
S'of'
p9257
ag361
as(g4136
tp9258
(lp9259
S'spacious'
p9260
ag3597
as(g3480
tp9261
(lp9262
S'to'
p9263
as(g1063
tp9264
(lp9265
S'the'
p9266
ag290
aS'feel'
p9267
as(g7956
tp9268
(lp9269
S'out'
p9270
as(S'washed'
p9271
tp9272
(lp9273
S'my'
p9274
as(g4172
tp9275
(lp9276
S'for'
p9277
as(g4682
tp9278
(lp9279
g457
aS'here'
p9280
ag4669
aS'given'
p9281
aS'taking'
p9282
ag6118
aS'given'
p9283
ag6059
aS'with'
p9284
aS'making'
p9285
ag6204
ag6767
ag4528
aS'close'
p9286
aS'through'
p9287
aS'almost'
p9288
ag6674
as(g1799
tp9289
(lp9290
S'and'
p9291
as(S'havnt'
p9292
tp9293
(lp9294
g7295
as(g5297
tp9295
(lp9296
S'END'
p9297
as(S'hit,'
p9298
tp9299
(lp9300
S'thinking'
p9301
as(g4754
tp9302
(lp9303
S'became'
p9304
as(g376
tp9305
(lp9306
S'of'
p9307
aS'of'
p9308
aS'of'
p9309
as(g7253
tp9310
(lp9311
S'and'
p9312
as(g5951
tp9313
(lp9314
S'down'
p9315
as(g8949
tp9316
(lp9317
S'and'
p9318
as(g3533
tp9319
(lp9320
S'to'
p9321
aS'and'
p9322
aS'unfolding'
p9323
as(S'coy'
p9324
tp9325
(lp9326
S'voice'
p9327
as(g8960
tp9328
(lp9329
g7088
ag1202
aS'or'
p9330
as(S'inside'
p9331
tp9332
(lp9333
S'of'
p9334
aS'of'
p9335
aS'our'
p9336
aS'of'
p9337
as(S'alternate'
p9338
tp9339
(lp9340
S'between'
p9341
as(S'lines'
p9342
tp9343
(lp9344
S'of'
p9345
aS'of'
p9346
as(S'flickered'
p9347
tp9348
(lp9349
S'and'
p9350
as(S'dumb'
p9351
tp9352
(lp9353
S'with'
p9354
as(g871
tp9355
(lp9356
g7535
as(S'ordinary'
p9357
tp9358
(lp9359
S'to'
p9360
as(g7495
tp9361
(lp9362
g35
as(g7375
tp9363
(lp9364
S'nausea,'
p9365
as(g1251
tp9366
(lp9367
g1586
as(g1870
tp9368
(lp9369
S'on'
p9370
as(S'becomes'
p9371
tp9372
(lp9373
g173
as(g4656
tp9374
(lp9375
S'was'
p9376
aS'knows'
p9377
aS'feels'
p9378
aS'actually'
p9379
aS'would'
p9380
aS'up'
p9381
aS'started'
p9382
ag35
aS'brought'
p9383
aS'were'
p9384
aS'came'
p9385
aS'came'
p9386
as(g7545
tp9387
(lp9388
g3495
as(S'participants.'
p9389
tp9390
(lp9391
S'END'
p9392
as(g6490
tp9393
(lp9394
S'itself'
p9395
as(g5521
tp9396
(lp9397
S'investigation'
p9398
as(g3939
tp9399
(lp9400
S'discomforts'
p9401
as(g6650
tp9402
(lp9403
g35
as(g1861
tp9404
(lp9405
S'them,'
p9406
as(S'force'
p9407
tp9408
(lp9409
S'flowing'
p9410
as(g6276
tp9411
(lp9412
S'the'
p9413
aS'to'
p9414
aS'to'
p9415
ag8171
aS'to'
p9416
aS'to'
p9417
aS'to'
p9418
aS'to'
p9419
aS'to'
p9420
ag8529
aS'to'
p9421
as(g7767
tp9422
(lp9423
S'to'
p9424
ag3084
as(g9247
tp9425
(lp9426
S'me'
p9427
as(g3318
tp9428
(lp9429
g35
aS'understandings'
p9430
as(g4746
tp9431
(lp9432
S'field.'
p9433
ag6743
ag5169
as(g4582
tp9434
(lp9435
S'about'
p9436
as(S'legitimacy'
p9437
tp9438
(lp9439
S'in'
p9440
as(g4843
tp9441
(lp9442
S'simply'
p9443
as(g6913
tp9444
(lp9445
g3055
ag449
as(S'try'
p9446
tp9447
(lp9448
S'the'
p9449
as(g6223
tp9450
(lp9451
S'END'
p9452
as(g9365
tp9453
(lp9454
S'but'
p9455
as(g929
tp9456
(lp9457
S'and'
p9458
as(g4770
tp9459
(lp9460
S'actually'
p9461
ag9407
aS'with'
p9462
as(g6931
tp9463
(lp9464
g1186
aS'we'
p9465
aS'this'
p9466
aS'it'
p9467
aS'the'
p9468
aS'it'
p9469
as(g7161
tp9470
(lp9471
g3860
ag6683
as(g5637
tp9472
(lp9473
S'END'
p9474
as(S'often'
p9475
tp9476
(lp9477
S'ignore...the'
p9478
as(g8489
tp9479
(lp9480
S'for'
p9481
as(g5683
tp9482
(lp9483
S'and'
p9484
aS'and'
p9485
as(g3044
tp9486
(lp9487
S'the'
p9488
aS'he'
p9489
ag8931
ag35
ag251
aS'they'
p9490
ag8819
aS'if'
p9491
aS'close'
p9492
aS'you'
p9493
ag35
ag6436
aS'well.'
p9494
aS'if'
p9495
aS'many'
p9496
ag35
ag2956
aS'she'
p9497
aS'the'
p9498
aS'they'
p9499
aS'far'
p9500
aS'they'
p9501
ag35
aS'it'
p9502
ag35
aS'it'
p9503
aS'my'
p9504
ag173
aS'not'
p9505
aS'all'
p9506
aS'the'
p9507
aS'it'
p9508
aS'maestro'
p9509
ag7171
aS'we'
p9510
as(S','
p9511
tp9512
(lp9513
g9122
as(g928
tp9514
(lp9515
S'to'
p9516
as(S'cease'
p9517
tp9518
(lp9519
S'in'
p9520
as(g4270
tp9521
(lp9522
S'interesting.'
p9523
aS'suddenly,'
p9524
as(g6951
tp9525
(lp9526
g7497
as(S'riverside.'
p9527
tp9528
(lp9529
S'END'
p9530
as(g6268
tp9531
(lp9532
S'too'
p9533
ag7291
aS'the'
p9534
ag8577
ag5354
ag9437
ag173
aS'still'
p9535
aS'coming!!!!!'
p9536
aS'why'
p9537
aS'why'
p9538
aS'so'
p9539
aS'the'
p9540
aS'like'
p9541
aS'still'
p9542
aS'where'
p9543
ag173
aS'so'
p9544
aS'so'
p9545
aS'also'
p9546
aS'the'
p9547
aS'VERY'
p9548
aS'over'
p9549
aS'my'
p9550
aS'good'
p9551
aS'the'
p9552
aS'still'
p9553
aS'the'
p9554
aS'this'
p9555
aS'an'
p9556
as(g7185
tp9557
(lp9558
S'comparable'
p9559
aS'human'
p9560
ag690
aS'the'
p9561
aS'have'
p9562
ag7801
aS'been'
p9563
aS'done'
p9564
aS'to'
p9565
aS'go'
p9566
ag9517
aS'come'
p9567
ag4626
aS'to'
p9568
ag8214
aS'gone'
p9569
aS'be'
p9570
as(g7404
tp9571
(lp9572
S'for'
p9573
as(g3762
tp9574
(lp9575
S'as'
p9576
as(g8121
tp9577
(lp9578
g2217
aS'the'
p9579
ag9232
ag5819
aS'the'
p9580
ag1811
ag173
ag5088
aS'one'
p9581
aS'me.'
p9582
aS'multiple'
p9583
aS'these'
p9584
aS'over'
p9585
ag4030
ag173
aS'my'
p9586
aS'this'
p9587
ag8903
aS'my'
p9588
aS'my'
p9589
aS'me.'
p9590
aS'me'
p9591
ag5191
aS'entities'
p9592
aS'what'
p9593
aS'the'
p9594
aS'the'
p9595
aS'the'
p9596
aS'me'
p9597
aS'far'
p9598
aS'flashy'
p9599
aS'my'
p9600
aS'me'
p9601
aS'my'
p9602
ag7283
aS'joy'
p9603
ag5930
aS'me.'
p9604
aS'me'
p9605
aS'the'
p9606
aS'thankfulness'
p9607
aS'you'
p9608
ag173
ag173
ag9005
aS'him,'
p9609
ag3029
ag7641
aS'this...I'
p9610
aS'me.'
p9611
aS'the'
p9612
aS'the'
p9613
aS'pink'
p9614
ag5748
aS'about'
p9615
aS'this'
p9616
as(g5483
tp9617
(lp9618
g6052
as(S'types'
p9619
tp9620
(lp9621
S'of'
p9622
as(S'hut;'
p9623
tp9624
(lp9625
g8548
as(S'encountered,'
p9626
tp9627
(lp9628
S'and'
p9629
as(g7912
tp9630
(lp9631
S'me'
p9632
aS'around.'
p9633
aS'up.'
p9634
aS'anywhere.'
p9635
aS'into'
p9636
aS'out'
p9637
aS'so'
p9638
aS'through'
p9639
aS'off'
p9640
as(S'itself'
p9641
tp9642
(lp9643
S'came'
p9644
aS'around'
p9645
aS'around'
p9646
ag9371
aS'and'
p9647
as(g2944
tp9648
(lp9649
g8438
as(g8815
tp9650
(lp9651
S'my'
p9652
as(g4829
tp9653
(lp9654
S'that'
p9655
aS'of'
p9656
as(g3630
tp9657
(lp9658
S'for'
p9659
ag5657
aS'dance'
p9660
as(g16
tp9661
(lp9662
S'and'
p9663
aS'by'
p9664
aS'was'
p9665
aS'that'
p9666
as(g5291
tp9667
(lp9668
S'END'
p9669
as(g9478
tp9670
(lp9671
S'darkness'
p9672
as(g9207
tp9673
(lp9674
S'END'
p9675
as(g7408
tp9676
(lp9677
S'and'
p9678
as(g1945
tp9679
(lp9680
g4437
as(S'said,'
p9681
tp9682
(lp9683
S'in'
p9684
ag35
as(g7199
tp9685
(lp9686
S'in'
p9687
as(S'door'
p9688
tp9689
(lp9690
S'blew'
p9691
aS'blew'
p9692
aS'and'
p9693
as(S'addressed'
p9694
tp9695
(lp9696
S'in'
p9697
as(g3950
tp9698
(lp9699
g2081
as(g758
tp9700
(lp9701
S'and'
p9702
ag35
aS'and'
p9703
as(S'existence,'
p9704
tp9705
(lp9706
S'as'
p9707
as(g1881
tp9708
(lp9709
S'that'
p9710
as(S'eternity.'
p9711
tp9712
(lp9713
S'END'
p9714
as(g1927
tp9715
(lp9716
S'the'
p9717
as(g6007
tp9718
(lp9719
S'this'
p9720
as(g4138
tp9721
(lp9722
g9331
ag9347
aS'began'
p9723
as(g4316
tp9724
(lp9725
S'by'
p9726
as(g6277
tp9727
(lp9728
S'proceded'
p9729
ag1702
ag3749
aS'gave'
p9730
aS'he'
p9731
aS'immediately'
p9732
aS'went'
p9733
aS'went'
p9734
aS'began'
p9735
aS'can'
p9736
aS'it'
p9737
ag6555
ag35
aS'she'
p9738
aS'laid'
p9739
as(g438
tp9740
(lp9741
S'about'
p9742
as(g8369
tp9743
(lp9744
S'time.'
p9745
aS'of'
p9746
as(S'thinking'
p9747
tp9748
(lp9749
S'to'
p9750
aS'those'
p9751
aS'about.'
p9752
aS'that'
p9753
aS'that'
p9754
aS'he'
p9755
ag3601
aS'doing'
p9756
ag5138
as(g4389
tp9757
(lp9758
g1371
as(g5269
tp9759
(lp9760
S'this,'
p9761
as(g8204
tp9762
(lp9763
S'out'
p9764
as(g7967
tp9765
(lp9766
S'with'
p9767
as(g9548
tp9768
(lp9769
S'hard'
p9770
ag3916
as(g902
tp9771
(lp9772
S'in'
p9773
ag3777
aS'to'
p9774
as(S'series'
p9775
tp9776
(lp9777
S'of'
p9778
aS'of'
p9779
as(S'from'
p9780
tp9781
(lp9782
g9357
aS'talking'
p9783
aS'the'
p9784
aS'my'
p9785
aS'the'
p9786
aS'almost'
p9787
aS'under'
p9788
aS'doing'
p9789
aS'everyone'
p9790
aS'Aya.'
p9791
as(g4574
tp9792
(lp9793
S'that'
p9794
as(g3927
tp9795
(lp9796
S'END'
p9797
as(g372
tp9798
(lp9799
S'of'
p9800
as(g4
tp9801
(lp9802
S'END'
p9803
aS'END'
p9804
as(S'dogs.'
p9805
tp9806
(lp9807
S'END'
p9808
aS'END'
p9809
as(g323
tp9810
(lp9811
S"we'll"
p9812
as(g8033
tp9813
(lp9814
S'me'
p9815
as(S'nervous'
p9816
tp9817
(lp9818
S'about'
p9819
as(g9523
tp9820
(lp9821
S'END'
p9822
as(g1378
tp9823
(lp9824
S'be'
p9825
aS'just'
p9826
ag8563
aS'be'
p9827
as(g1284
tp9828
(lp9829
g1547
as(S'Torah,'
p9830
tp9831
(lp9832
S'just'
p9833
as(g7164
tp9834
(lp9835
S'END'
p9836
aS'END'
p9837
as(g1066
tp9838
(lp9839
S'would'
p9840
aS'disappear.'
p9841
aS'unable'
p9842
aS'not'
p9843
as(g917
tp9844
(lp9845
g9351
as(g4686
tp9846
(lp9847
g3900
ag5692
ag6709
aS'been'
p9848
ag7148
ag1501
ag7520
aS'felt.'
p9849
aS'felt'
p9850
aS'stop,'
p9851
as(S'else.'
p9852
tp9853
(lp9854
S'END'
p9855
as(g4415
tp9856
(lp9857
S'in'
p9858
as(g9049
tp9859
(lp9860
S'END'
p9861
as(g7417
tp9862
(lp9863
S'as'
p9864
as(g6265
tp9865
(lp9866
g8417
as(g5068
tp9867
(lp9868
S'and'
p9869
as(g3183
tp9870
(lp9871
g5255
aS'Curanderismo'
p9872
ag7546
ag5450
aS'songs,'
p9873
ag5298
ag7276
aS'light'
p9874
ag2970
aS'effects'
p9875
aS'purge'
p9876
aS'entities'
p9877
aS'rooms'
p9878
aS'seemed'
p9879
ag2908
aS'divine'
p9880
aS'divine'
p9881
ag7269
aS'dance'
p9882
aS'second'
p9883
aS'buzzing'
p9884
aS'visions'
p9885
aS'whirring'
p9886
ag6614
aS'maestro,'
p9887
aS'tobacco'
p9888
aS'shaman'
p9889
aS'door'
p9890
aS'next'
p9891
aS'purge'
p9892
aS'next'
p9893
as(g4292
tp9894
(lp9895
S'in'
p9896
as(g8503
tp9897
(lp9898
S'to'
p9899
as(g8713
tp9900
(lp9901
S'but'
p9902
as(g5062
tp9903
(lp9904
S'but'
p9905
as(g4211
tp9906
(lp9907
g282
as(S'silliest'
p9908
tp9909
(lp9910
g4358
as(g1853
tp9911
(lp9912
S'and'
p9913
as(g3307
tp9914
(lp9915
S'my'
p9916
as(g8909
tp9917
(lp9918
S'in'
p9919
as(g1894
tp9920
(lp9921
g6183
aS'presence'
p9922
as(S'river'
p9923
tp9924
(lp9925
g8141
aS'and'
p9926
ag8621
aS'and'
p9927
ag9065
aS'in'
p9928
as(g9280
tp9929
(lp9930
S'before,'
p9931
aS'but'
p9932
aS'and'
p9933
as(g6644
tp9934
(lp9935
g173
aS'and'
p9936
as(g7007
tp9937
(lp9938
S'to'
p9939
as(g4813
tp9940
(lp9941
S'that'
p9942
as(g9812
tp9943
(lp9944
g4513
as(g8703
tp9945
(lp9946
S'and'
p9947
as(S'shamans'
p9948
tp9949
(lp9950
S'gave'
p9951
aS'for'
p9952
aS'came'
p9953
as(g3797
tp9954
(lp9955
S'you'
p9956
aS'for'
p9957
aS'and'
p9958
as(g7817
tp9959
(lp9960
S'END'
p9961
as(g9635
tp9962
(lp9963
S'END'
p9964
as(g663
tp9965
(lp9966
S'END'
p9967
as(S'gained?'
p9968
tp9969
(lp9970
S'END'
p9971
as(g8468
tp9972
(lp9973
S'images'
p9974
as(g6461
tp9975
(lp9976
S'through'
p9977
as(S'out!'
p9978
tp9979
(lp9980
S'END'
p9981
as(g1449
tp9982
(lp9983
g1404
as(g7915
tp9984
(lp9985
S'with'
p9986
as(g5485
tp9987
(lp9988
g8767
as(g7834
tp9989
(lp9990
S'of'
p9991
ag2282
aS'bit'
p9992
aS'in'
p9993
ag2201
ag3960
aS'other'
p9994
as(S'wobbled'
p9995
tp9996
(lp9997
S'to'
p9998
as(g7888
tp9999
(lp10000
g35
as(g3449
tp10001
(lp10002
S'words'
p10003
as(g5823
tp10004
(lp10005
g8956
aS'no'
p10006
ag231
aS'talking'
p10007
aS'unfolding'
p10008
ag197
ag1086
aS'driven'
p10009
as(g5581
tp10010
(lp10011
g173
as(g2044
tp10012
(lp10013
S'END'
p10014
as(g7527
tp10015
(lp10016
g9619
ag1134
ag1126
as(g6734
tp10017
(lp10018
S'of'
p10019
as(g4142
tp10020
(lp10021
S'form'
p10022
as(S'night.'
p10023
tp10024
(lp10025
S'END'
p10026
aS'END'
p10027
aS'END'
p10028
aS'END'
p10029
as(g2025
tp10030
(lp10031
g35
as(g6387
tp10032
(lp10033
S'for'
p10034
as(g4177
tp10035
(lp10036
g4956
ag4587
aS'shape.'
p10037
aS'enough'
p10038
aS'for'
p10039
aS'explanation.'
p10040
ag5871
as(S'asked.'
p10041
tp10042
(lp10043
S'END'
p10044
as(S'believe'
p10045
tp10046
(lp10047
S'this'
p10048
aS'that'
p10049
aS'that'
p10050
ag35
as(g1374
tp10051
(lp10052
S'was'
p10053
as(g1678
tp10054
(lp10055
g5173
aS'to'
p10056
aS'through'
p10057
as(g2285
tp10058
(lp10059
S'tightly'
p10060
as(g8492
tp10061
(lp10062
S'so'
p10063
aS'into'
p10064
aS'out'
p10065
aS'fluidly'
p10066
as(g8995
tp10067
(lp10068
g35
aS'the'
p10069
ag471
aS'some'
p10070
aS'not'
p10071
ag3638
aS'so,'
p10072
aS'so'
p10073
aS'everything'
p10074
aS'not.'
p10075
as(g4775
tp10076
(lp10077
S'too'
p10078
as(S'best'
p10079
tp10080
(lp10081
S'way'
p10082
as(S'love,'
p10083
tp10084
(lp10085
S'so'
p10086
aS'her'
p10087
aS'went'
p10088
as(g7229
tp10089
(lp10090
S'END'
p10091
as(g9315
tp10092
(lp10093
S'my'
p10094
aS'and'
p10095
aS'to'
p10096
aS'across'
p10097
aS'my'
p10098
aS'into'
p10099
aS'until'
p10100
aS'my'
p10101
aS'on'
p10102
aS'and'
p10103
as(g1612
tp10104
(lp10105
S'END'
p10106
as(g3596
tp10107
(lp10108
S'through'
p10109
as(g6943
tp10110
(lp10111
S'the'
p10112
as(S'wall'
p10113
tp10114
(lp10115
S'was'
p10116
as(S'current'
p10117
tp10118
(lp10119
g1543
as(g3275
tp10120
(lp10121
S'and'
p10122
aS'is'
p10123
as(g5625
tp10124
(lp10125
g35
as(S'incapacitated.'
p10126
tp10127
(lp10128
S'END'
p10129
as(S'sentient.'
p10130
tp10131
(lp10132
S'END'
p10133
as(S'drifted'
p10134
tp10135
(lp10136
S'off'
p10137
as(g7885
tp10138
(lp10139
g5982
as(g6993
tp10140
(lp10141
g2271
as(g9729
tp10142
(lp10143
S'to'
p10144
as(g1851
tp10145
(lp10146
S'and'
p10147
as(g4857
tp10148
(lp10149
S'and'
p10150
as(g5987
tp10151
(lp10152
g35
ag35
ag35
as(g8604
tp10153
(lp10154
S'up'
p10155
as(g5822
tp10156
(lp10157
g8798
as(g8580
tp10158
(lp10159
S'END'
p10160
as(g1775
tp10161
(lp10162
g8249
ag3658
aS'strong'
p10163
aS'pleased'
p10164
ag4079
ag6137
aS'good'
p10165
aS'hard'
p10166
ag5639
aS'different'
p10167
ag975
ag5023
ag5213
aS'heavy,'
p10168
ag7242
aS'small'
p10169
aS'thorough'
p10170
ag6746
aS'quickly'
p10171
ag9324
as(g4611
tp10172
(lp10173
S'along'
p10174
aS'having'
p10175
aS'dancing'
p10176
as(g8441
tp10177
(lp10178
g7181
as(g4477
tp10179
(lp10180
g1735
as(g4763
tp10181
(lp10182
S'END'
p10183
as(S'drink.'
p10184
tp10185
(lp10186
S'END'
p10187
as(g1993
tp10188
(lp10189
S'be'
p10190
as(S'pictures'
p10191
tp10192
(lp10193
S'of'
p10194
as(S'wed,'
p10195
tp10196
(lp10197
g5314
as(S'moment,'
p10198
tp10199
(lp10200
S'and'
p10201
as(g2289
tp10202
(lp10203
g5187
as(g8505
tp10204
(lp10205
S'to'
p10206
as(S'twining'
p10207
tp10208
(lp10209
S'of'
p10210
as(g8620
tp10211
(lp10212
S'one'
p10213
as(S'consciousness'
p10214
tp10215
(lp10216
S'of'
p10217
aS'and'
p10218
ag35
as(g8343
tp10219
(lp10220
S'with'
p10221
as(S'absolutely'
p10222
tp10223
(lp10224
S'no'
p10225
as(g5421
tp10226
(lp10227
S'of'
p10228
as(g8494
tp10229
(lp10230
S'different'
p10231
as(g2156
tp10232
(lp10233
g2066
ag1486
as(S'places'
p10234
tp10235
(lp10236
S'that'
p10237
as(g1107
tp10238
(lp10239
g1660
as(g5952
tp10240
(lp10241
S'to'
p10242
aS'very'
p10243
as(g7654
tp10244
(lp10245
g3891
as(g3410
tp10246
(lp10247
S'not'
p10248
aS'in'
p10249
as(S'beginning'
p10250
tp10251
(lp10252
S'of'
p10253
aS'of'
p10254
as(g7213
tp10255
(lp10256
S'tobacco'
p10257
aS'tobacco'
p10258
as(g9377
tp10259
(lp10260
S'what'
p10261
as(g1988
tp10262
(lp10263
S'to'
p10264
as(g9013
tp10265
(lp10266
S'in'
p10267
as(g8003
tp10268
(lp10269
S'END'
p10270
as(g7329
tp10271
(lp10272
g6164
ag8348
aS'hills'
p10273
ag347
ag1094
ag4549
ag8606
ag1450
aS'candle'
p10274
ag7139
aS'Curaderismos,'
p10275
ag6497
ag5362
aS'Ayahausca'
p10276
aS'top'
p10277
aS'bottle'
p10278
aS'liquid'
p10279
ag8913
aS'Ayahuasca'
p10280
ag5736
aS'night'
p10281
ag660
aS'entire'
p10282
aS'night.'
p10283
ag797
ag9389
ag9830
ag935
ag1375
ag3719
aS'Ayahuascero'
p10284
aS'candle'
p10285
aS'spirit'
p10286
ag624
aS'spirits'
p10287
ag4904
ag7814
ag8138
ag2840
ag6335
aS'most'
p10288
aS'Curanderismo'
p10289
aS'spirit'
p10290
ag3985
ag390
ag3884
ag6662
ag8523
ag1652
ag9805
aS'purge'
p10291
ag588
aS'spirits'
p10292
aS'shaman'
p10293
ag1827
aS'experience'
p10294
ag751
aS'dogs'
p10295
ag7751
ag7645
aS'dogs.'
p10296
ag5385
aS'dogs'
p10297
ag8431
ag10214
ag7143
ag838
ag4601
aS'entire'
p10298
aS'ayahuasca'
p10299
aS'room.'
p10300
ag5944
ag6365
aS'room'
p10301
aS'spirit'
p10302
ag6877
aS'experience'
p10303
ag2926
ag1679
aS'same'
p10304
aS'potential'
p10305
ag7601
ag1142
ag7442
aS'point'
p10306
aS'same'
p10307
aS'Ayahuasca'
p10308
ag10198
aS'outhouse'
p10309
ag9076
aS'outhouse'
p10310
aS'flashlight'
p10311
ag4915
ag4509
ag8739
aS'most'
p10312
ag6369
ag9342
ag10113
ag10207
aS'situation.'
p10313
aS'destinies'
p10314
ag7449
ag9923
aS'only'
p10315
aS'experience'
p10316
aS'soul'
p10317
ag3516
aS'dream'
p10318
ag1648
aS'river'
p10319
aS'very'
p10320
aS'world,'
p10321
ag6515
aS'trees'
p10322
aS'river'
p10323
ag4426
aS'river'
p10324
aS'world'
p10325
ag6294
aS'aliens'
p10326
aS'trees'
p10327
aS'river'
p10328
aS'time.'
p10329
aS'intensity'
p10330
ag6354
ag9105
aS'wondrous'
p10331
ag7238
ag8184
ag1397
ag9527
ag8238
aS'most'
p10332
aS'last'
p10333
aS'really'
p10334
ag3128
aS'gift'
p10335
ag7590
aS'course'
p10336
ag6063
aS'group,'
p10337
aS'shadows'
p10338
ag6215
aS'fire.'
p10339
aS'life'
p10340
aS'trees'
p10341
ag5325
aS'yoga'
p10342
aS'new'
p10343
aS'understanding'
p10344
aS'divine'
p10345
ag672
aS'human'
p10346
aS'moves'
p10347
ag10079
aS'spirits'
p10348
ag9090
ag9157
aS'experience'
p10349
ag4965
ag1243
aS'beauty'
p10350
aS'beauty'
p10351
aS'healing'
p10352
aS'divine'
p10353
ag1731
ag10234
aS'energy'
p10354
aS'tent'
p10355
aS'tent'
p10356
ag9018
ag8328
ag10117
aS'while,'
p10357
ag2232
aS'divine'
p10358
aS'subject'
p10359
aS'time.'
p10360
aS'most'
p10361
ag1090
ag2128
ag4461
aS'people'
p10362
ag10250
aS'ceremony,'
p10363
ag9948
ag10184
ag4960
ag6784
ag5001
ag759
aS'brew.'
p10364
aS'drink'
p10365
ag9164
ag2236
aS'room'
p10366
aS'first'
p10367
ag821
aS'come'
p10368
aS'visions'
p10369
aS'inside'
p10370
aS'first'
p10371
ag9688
aS'room'
p10372
aS'visions'
p10373
aS'first'
p10374
ag5303
ag2795
aS'face'
p10375
ag5239
aS'area'
p10376
aS'medicine'
p10377
ag2204
ag219
aS'words'
p10378
ag4630
ag223
ag3491
ag8555
aS'energy'
p10379
aS'shamans'
p10380
ag1706
aS'energy'
p10381
ag6123
aS"maestro's"
p10382
aS'only'
p10383
ag2147
ag6350
aS'shamans'
p10384
aS'maestro'
p10385
ag5367
ag656
aS'darkness'
p10386
ag3593
ag8167
aS'left'
p10387
aS'singing'
p10388
aS'beginning'
p10389
aS'ceremony,'
p10390
aS'spirit'
p10391
aS'darkness'
p10392
ag3977
aS'teachings'
p10393
aS'room'
p10394
aS'room.'
p10395
aS'circle'
p10396
aS'purge,'
p10397
aS'energy'
p10398
ag6796
aS'most'
p10399
aS'room'
p10400
ag9908
aS'purge'
p10401
aS'energy'
p10402
aS'most'
p10403
aS'room.'
p10404
aS'ritual'
p10405
aS'plant.'
p10406
aS'circle'
p10407
aS'hidden'
p10408
ag3644
ag8107
aS'universe'
p10409
aS'universe'
p10410
aS'water'
p10411
aS'circle.'
p10412
aS'room'
p10413
aS'journey'
p10414
aS'ground,'
p10415
ag9238
aS'door'
p10416
aS'night.'
p10417
ag2967
aS'untold'
p10418
ag2895
aS'ceremony'
p10419
ag1130
aS'circle.'
p10420
ag4441
ag6297
ag274
aS'place'
p10421
as(g10311
tp10422
(lp10423
S'and'
p10424
as(g1267
tp10425
(lp10426
S'spirits'
p10427
ag7234
aS'was'
p10428
ag5439
ag1629
ag173
ag5752
ag35
aS'the'
p10429
ag35
aS'the'
p10430
ag9852
aS'it'
p10431
aS'they'
p10432
aS'they'
p10433
aS'is'
p10434
aS'the'
p10435
ag35
aS'felt'
p10436
as(g35
tp10437
(lp10438
g2934
ag3852
ag4679
aS'had'
p10439
aS'had'
p10440
aS'remember'
p10441
ag8324
aS'had'
p10442
aS'was'
p10443
aS'was'
p10444
ag5772
ag5458
aS'began'
p10445
ag1772
aS'was'
p10446
aS'began'
p10447
ag8087
ag6834
aS'was'
p10448
aS'would'
p10449
aS'would'
p10450
ag7787
aS'always'
p10451
aS'had'
p10452
ag10045
ag4862
ag9626
aS'remember'
p10453
ag4921
aS'felt'
p10454
ag8397
aS'were'
p10455
aS'would'
p10456
aS'could'
p10457
aS'came'
p10458
ag3848
aS'could'
p10459
aS'must'
p10460
ag2859
ag1673
aS'hadnt'
p10461
aS'hadnt'
p10462
aS'had'
p10463
ag9968
aS'was'
p10464
aS'could'
p10465
aS'would'
p10466
ag3569
aS'was'
p10467
aS'realized'
p10468
ag1173
aS'drank'
p10469
aS'had'
p10470
aS'was'
p10471
aS'could'
p10472
aS'was'
p10473
ag8811
aS'drink'
p10474
aS'heard'
p10475
aS'also'
p10476
aS'couldnt'
p10477
aS'was'
p10478
aS'realized'
p10479
aS'was'
p10480
aS'began'
p10481
aS'felt'
p10482
aS'was'
p10483
aS'realized'
p10484
aS'also'
p10485
ag5206
aS'became'
p10486
aS'laid'
p10487
aS'could'
p10488
aS'could'
p10489
aS'realized'
p10490
aS'began'
p10491
aS'knew'
p10492
aS'was'
p10493
aS'understood'
p10494
aS'felt'
p10495
ag9028
aS'could'
p10496
aS'noticed'
p10497
aS'couldnt'
p10498
ag8051
aS'would'
p10499
aS'had'
p10500
aS'just'
p10501
aS'could'
p10502
aS'had'
p10503
aS'actually'
p10504
aS'could'
p10505
aS'could'
p10506
aS'wasnt'
p10507
aS'knew'
p10508
aS'never'
p10509
aS'had'
p10510
aS'never'
p10511
ag453
aS'returned'
p10512
aS'was'
p10513
aS'was'
p10514
aS'hadnt'
p10515
aS'had'
p10516
aS'got'
p10517
aS'had'
p10518
aS'didnt'
p10519
aS'had'
p10520
aS'knew'
p10521
aS'was'
p10522
ag8460
aS'trust'
p10523
aS'realized'
p10524
ag294
aS'feel'
p10525
ag6528
aS'am'
p10526
aS'had'
p10527
aS'feel'
p10528
aS'no'
p10529
aS'have'
p10530
ag3014
aS'feel'
p10531
ag3144
aS'need'
p10532
ag1597
aS'realized'
p10533
ag2984
aS'made'
p10534
aS'had'
p10535
ag9271
aS'closed'
p10536
aS'closed'
p10537
aS'tried'
p10538
aS'felt'
p10539
aS'felt'
p10540
aS'would'
p10541
aS'was'
p10542
aS'have'
p10543
aS'know'
p10544
aS'realized'
p10545
aS'did'
p10546
aS'light'
p10547
ag8336
ag162
aS'could'
p10548
aS'do'
p10549
aS'asked'
p10550
aS'reiterated'
p10551
aS'realized'
p10552
aS'have'
p10553
aS'came'
p10554
aS'noticed'
p10555
aS'told'
p10556
aS'had'
p10557
ag4885
aS'felt'
p10558
aS'was'
p10559
aS'said.'
p10560
aS'told'
p10561
aS'dont'
p10562
aS'was'
p10563
aS'perched'
p10564
aS'was'
p10565
aS'sat'
p10566
aS'thought'
p10567
aS'kept'
p10568
aS'have'
p10569
aS'was'
p10570
aS'cant'
p10571
aS'am'
p10572
aS'am'
p10573
aS'cant'
p10574
ag5709
aS'was'
p10575
aS'realized'
p10576
aS'should'
p10577
aS'felt'
p10578
aS'closed'
p10579
aS'became'
p10580
aS'was'
p10581
aS'was'
p10582
ag193
aS'became'
p10583
aS'had'
p10584
aS'became'
p10585
aS'began'
p10586
aS'had'
p10587
aS'could'
p10588
aS'had'
p10589
aS'have'
p10590
aS'could'
p10591
aS'was.'
p10592
aS'was'
p10593
aS'went'
p10594
aS'am'
p10595
aS'just'
p10596
aS'need'
p10597
aS'started'
p10598
aS'could'
p10599
aS'saw'
p10600
aS'started'
p10601
aS'would'
p10602
aS'ever'
p10603
aS'have'
p10604
aS'start'
p10605
aS'am'
p10606
ag3868
aS'am'
p10607
ag2314
aS'move'
p10608
aS'am'
p10609
aS'am'
p10610
ag8997
aS'do'
p10611
aS'am'
p10612
ag5791
aS'am'
p10613
aS'go'
p10614
aS'am'
p10615
aS'hang'
p10616
ag8888
aS'want'
p10617
aS'dont'
p10618
aS'feel'
p10619
aS'drank'
p10620
ag9338
aS'nearly'
p10621
ag8178
aS'need'
p10622
aS'run'
p10623
aS'am'
p10624
aS'let'
p10625
aS'am'
p10626
aS'am'
p10627
ag5814
aS'relax'
p10628
aS'cant'
p10629
aS'hang'
p10630
aS'should'
p10631
aS'am'
p10632
ag5115
aS'feel'
p10633
aS'had'
p10634
ag10134
aS'have'
p10635
aS'am'
p10636
aS'believe'
p10637
aS'got'
p10638
aS'remember'
p10639
aS'heard'
p10640
aS'know'
p10641
ag8592
aS'felt'
p10642
aS'was'
p10643
ag4969
aS'felt'
p10644
aS'kept'
p10645
ag4125
aS'remember'
p10646
ag741
aS'would'
p10647
aS'remember'
p10648
aS'was'
p10649
aS'could'
p10650
aS'remember'
p10651
aS'was'
p10652
aS'could'
p10653
aS'first'
p10654
aS'remember'
p10655
aS'got'
p10656
aS'could'
p10657
aS'felt'
p10658
aS'was'
p10659
ag905
ag339
aS'kept'
p10660
aS'was'
p10661
ag2999
aS'had'
p10662
aS'started'
p10663
ag4102
aS'remember'
p10664
aS'thinking'
p10665
aS'need'
p10666
aS'need'
p10667
aS'need'
p10668
aS'want'
p10669
aS'been'
p10670
aS'tried'
p10671
ag7560
aS'reached'
p10672
aS'had'
p10673
aS'finally'
p10674
aS'could'
p10675
aS'remembered'
p10676
aS'remembered'
p10677
aS'could'
p10678
aS'was'
p10679
aS'could'
p10680
aS'said'
p10681
aS'think'
p10682
aS'told'
p10683
aS'was'
p10684
aS'was'
p10685
aS"couldn't"
p10686
aS'still'
p10687
aS'had'
p10688
aS'felt'
p10689
aS'had'
p10690
aS'remember'
p10691
aS'knew,'
p10692
aS'did'
p10693
aS'was'
p10694
aS'sat'
p10695
aS'turned'
p10696
aS'found'
p10697
aS'felt'
p10698
aS'was'
p10699
aS'felt'
p10700
aS'could'
p10701
ag8567
aS'started'
p10702
aS'felt'
p10703
aS'could'
p10704
aS'realized'
p10705
aS'felt'
p10706
ag3896
aS'could'
p10707
aS'started'
p10708
aS'could'
p10709
aS'could'
p10710
ag303
aS'started'
p10711
ag8235
aS'was'
p10712
aS'have'
p10713
aS'was'
p10714
aS'could'
p10715
aS'realized'
p10716
aS'had'
p10717
ag8427
aS'have'
p10718
aS'felt'
p10719
aS'also'
p10720
ag10041
aS'realized'
p10721
aS'arrived'
p10722
ag9475
aS'needed'
p10723
aS'heard'
p10724
aS'started'
p10725
aS'remember'
p10726
aS'was'
p10727
aS'could'
p10728
aS'was'
p10729
aS'was'
p10730
aS'can'
p10731
aS'realized'
p10732
ag2116
aS'heard'
p10733
ag9995
aS'saw'
p10734
aS'was'
p10735
aS'felt'
p10736
aS'had'
p10737
aS'could'
p10738
aS'have'
p10739
aS'kept'
p10740
aS'am'
p10741
aS'have'
p10742
aS'not'
p10743
aS'would'
p10744
ag3471
as(g8248
tp10745
(lp10746
S'of'
p10747
as(g10168
tp10748
(lp10749
g3818
as(g8664
tp10750
(lp10751
S'ayahuasca.'
p10752
as(g10408
tp10753
(lp10754
g4087
as(g10564
tp10755
(lp10756
S'on'
p10757
as(g9398
tp10758
(lp10759
S'of'
p10760
as(g4406
tp10761
(lp10762
S'END'
p10763
as(g7972
tp10764
(lp10765
S'END'
p10766
as(g8801
tp10767
(lp10768
g7055
aS'were'
p10769
aS'were'
p10770
ag9681
aS'that'
p10771
aS'and'
p10772
ag6021
ag343
aS'and'
p10773
aS'all'
p10774
aS'looked'
p10775
aS'so'
p10776
as(g302
tp10777
(lp10778
S'seen'
p10779
as(g10022
tp10780
(lp10781
S'of'
p10782
ag10191
aS'of'
p10783
as(S'laying'
p10784
tp10785
(lp10786
S'down,'
p10787
aS'in'
p10788
ag6455
as(g9285
tp10789
(lp10790
S'gentle'
p10791
as(g8624
tp10792
(lp10793
S'up'
p10794
as(g5587
tp10795
(lp10796
S'and'
p10797
as(g10075
tp10798
(lp10799
S'END'
p10800
as(g10617
tp10801
(lp10802
S'more.'
p10803
aS'this'
p10804
as(g10040
tp10805
(lp10806
S'END'
p10807
as(g2126
tp10808
(lp10809
g2917
as(g3459
tp10810
(lp10811
S'END'
p10812
as(g2059
tp10813
(lp10814
S'the'
p10815
as(g1482
tp10816
(lp10817
g35
as(g10551
tp10818
(lp10819
S'my'
p10820
as(g9599
tp10821
(lp10822
g8290
as(g5899
tp10823
(lp10824
S'all'
p10825
as(g387
tp10826
(lp10827
g9978
as(g8978
tp10828
(lp10829
g35
as(g8025
tp10830
(lp10831
S'the'
p10832
ag5119
as(g5453
tp10833
(lp10834
S'END'
p10835
as(g10060
tp10836
(lp10837
S'and'
p10838
as(g8392
tp10839
(lp10840
S'END'
p10841
as(g4633
tp10842
(lp10843
S'to'
p10844
as(g8680
tp10845
(lp10846
S'over'
p10847
as(g8720
tp10848
(lp10849
S'by'
p10850
as(g3229
tp10851
(lp10852
S'were'
p10853
as(S'understandably'
p10854
tp10855
(lp10856
g3662
as(g4803
tp10857
(lp10858
S'END'
p10859
as(g8672
tp10860
(lp10861
S'enter'
p10862
aS'think'
p10863
ag10130
as(g6703
tp10864
(lp10865
S'deeper'
p10866
aS'up'
p10867
as(g350
tp10868
(lp10869
g6640
ag35
aS'and'
p10870
ag2099
as(g4828
tp10871
(lp10872
g5333
ag6830
as(g1854
tp10873
(lp10874
S'and'
p10875
as(g10275
tp10876
(lp10877
S'for'
p10878
as(g1009
tp10879
(lp10880
g6854
as(g4455
tp10881
(lp10882
S'END'
p10883
as(g352
tp10884
(lp10885
S'this.'
p10886
aS'that'
p10887
aS'my'
p10888
aS'our'
p10889
as(g8668
tp10890
(lp10891
S'END'
p10892
aS'END'
p10893
as(g4149
tp10894
(lp10895
g8201
ag9775
ag1535
as(g7354
tp10896
(lp10897
S'most'
p10898
as(g10066
tp10899
(lp10900
S'through'
p10901
as(S'almost'
p10902
tp10903
(lp10904
g8359
ag5235
ag1102
aS'all'
p10905
ag8756
ag8509
aS'violently'
p10906
ag4650
ag7735
as(g8786
tp10907
(lp10908
S'END'
p10909
as(g3260
tp10910
(lp10911
S'the'
p10912
as(g4010
tp10913
(lp10914
S'END'
p10915
aS'END'
p10916
aS'END'
p10917
as(g3863
tp10918
(lp10919
S'END'
p10920
as(g7908
tp10921
(lp10922
S'about'
p10923
as(g3226
tp10924
(lp10925
S'is'
p10926
aS'if'
p10927
ag35
as(S'ayahausca,'
p10928
tp10929
(lp10930
S'but'
p10931
as(S'universe'
p10932
tp10933
(lp10934
g9511
aS'is'
p10935
aS'because'
p10936
as(g5549
tp10937
(lp10938
S'and'
p10939
as(g9103
tp10940
(lp10941
S'in'
p10942
as(g6432
tp10943
(lp10944
S'energy'
p10945
as(g2036
tp10946
(lp10947
S'experience'
p10948
as(g8469
tp10949
(lp10950
S'me'
p10951
as(g4255
tp10952
(lp10953
S'filled'
p10954
aS'of'
p10955
as(g2211
tp10956
(lp10957
S'END'
p10958
as(g8015
tp10959
(lp10960
S'END'
p10961
as(g609
tp10962
(lp10963
S'and'
p10964
as(g10355
tp10965
(lp10966
S'and'
p10967
aS'and'
p10968
as(g10441
tp10969
(lp10970
g5422
ag8747
aS'one'
p10971
aS'looking'
p10972
ag1582
aS'the'
p10973
aS'trying'
p10974
aS'thinking'
p10975
aS'anything'
p10976
aS'thinking'
p10977
ag4897
aS'thinking'
p10978
as(S'intention'
p10979
tp10980
(lp10981
S'before'
p10982
aS'when'
p10983
as(S'fluid,'
p10984
tp10985
(lp10986
S'the'
p10987
as(g6961
tp10988
(lp10989
S'dogs'
p10990
as(g5560
tp10991
(lp10992
S'as'
p10993
as(g8687
tp10994
(lp10995
S'fill'
p10996
as(g10322
tp10997
(lp10998
S'across'
p10999
aS'across'
p11000
aS'and'
p11001
aS'and'
p11002
as(g9887
tp11003
(lp11004
S'who'
p11005
as(g38
tp11006
(lp11007
S'O.K.,'
p11008
aS'just'
p11009
as(g9327
tp11010
(lp11011
S'asked'
p11012
as(g9583
tp11013
(lp11014
g6593
as(g5621
tp11015
(lp11016
S'within'
p11017
as(g943
tp11018
(lp11019
S'him'
p11020
as(g4146
tp11021
(lp11022
g9056
ag9816
ag4366
ag35
aS'too'
p11023
as(g10037
tp11024
(lp11025
S'END'
p11026
as(g1801
tp11027
(lp11028
S'END'
p11029
as(g9177
tp11030
(lp11031
g267
aS'the'
p11032
aS'some'
p11033
ag9711
ag8393
aS'the'
p11034
ag173
aS'my'
p11035
aS'my'
p11036
aS'every'
p11037
aS'the'
p11038
aS'it,'
p11039
aS'my'
p11040
aS'the'
p11041
aS'to'
p11042
aS'the'
p11043
aS'the'
p11044
aS'it,'
p11045
as(g4834
tp11046
(lp11047
S'END'
p11048
as(g3271
tp11049
(lp11050
S'my'
p11051
as(g4221
tp11052
(lp11053
S'and'
p11054
as(g3944
tp11055
(lp11056
S'night.'
p11057
as(g6696
tp11058
(lp11059
g2286
as(S'joining'
p11060
tp11061
(lp11062
S'me'
p11063
as(g1886
tp11064
(lp11065
S'with'
p11066
as(g3752
tp11067
(lp11068
S'the'
p11069
ag6718
ag173
aS'to'
p11070
aS'and'
p11071
ag7473
aS'the'
p11072
aS'and'
p11073
aS'my'
p11074
aS'my'
p11075
aS'gave'
p11076
as(g7550
tp11077
(lp11078
g1209
aS'calm'
p11079
ag8420
ag1318
ag1539
aS'an'
p11080
aS'aware'
p11081
aS'so'
p11082
ag1765
aS'entirely'
p11083
ag10126
aS'time'
p11084
as(g4144
tp11085
(lp11086
S'in'
p11087
as(g9884
tp11088
(lp11089
g8094
as(g9052
tp11090
(lp11091
S'where'
p11092
as(g10359
tp11093
(lp11094
S'of'
p11095
as(g10538
tp11096
(lp11097
S'to'
p11098
aS'to'
p11099
aS'to'
p11100
as(g9401
tp11101
(lp11102
S'that'
p11103
as(g2055
tp11104
(lp11105
g5405
as(g4285
tp11106
(lp11107
S'for'
p11108
aS'for'
p11109
as(g8471
tp11110
(lp11111
S'me,'
p11112
as(g7344
tp11113
(lp11114
S'again.'
p11115
ag9641
as(g5911
tp11116
(lp11117
S'felt'
p11118
as(g4328
tp11119
(lp11120
S'in'
p11121
as(S'went'
p11122
tp11123
(lp11124
S'by'
p11125
aS'into'
p11126
aS'back'
p11127
aS'off'
p11128
aS'down'
p11129
aS'back'
p11130
aS'to'
p11131
aS'back'
p11132
ag6902
aS'through'
p11133
as(g8458
tp11134
(lp11135
S'after'
p11136
as(g6894
tp11137
(lp11138
g6179
as(g3611
tp11139
(lp11140
g35
as(g4747
tp11141
(lp11142
S'and'
p11143
aS'and'
p11144
ag10784
as(g9536
tp11145
(lp11146
S'END'
p11147
as(g6244
tp11148
(lp11149
S'to'
p11150
as(g8863
tp11151
(lp11152
S'of'
p11153
as(g4810
tp11154
(lp11155
S'is'
p11156
as(g6470
tp11157
(lp11158
S'down,'
p11159
as(g10393
tp11160
(lp11161
S'of'
p11162
as(g1303
tp11163
(lp11164
g5243
aS'experiences'
p11165
as(g1145
tp11166
(lp11167
S'you'
p11168
as(g1852
tp11169
(lp11170
g5739
as(g8400
tp11171
(lp11172
g4539
as(S'(elevation'
p11173
tp11174
(lp11175
g1122
as(g9841
tp11176
(lp11177
S'END'
p11178
as(S'coming'
p11179
tp11180
(lp11181
S'out'
p11182
aS'to'
p11183
as(g7884
tp11184
(lp11185
S'for'
p11186
aS'it'
p11187
aS'about'
p11188
aS'it'
p11189
aS'that'
p11190
aS'that'
p11191
aS'that'
p11192
aS'about'
p11193
ag35
as(g6269
tp11194
(lp11195
S'profound'
p11196
as(g5722
tp11197
(lp11198
S'and'
p11199
as(g6947
tp11200
(lp11201
g699
ag9704
ag6075
ag7664
ag9082
aS'souls'
p11202
aS'connected'
p11203
aS'souls'
p11204
aS'souls'
p11205
ag4098
aS'souls'
p11206
aS'souls,'
p11207
aS'extremely'
p11208
aS'own'
p11209
aS'circle'
p11210
aS'room.'
p11211
aS'friends'
p11212
aS'personal'
p11213
as(S'God.'
p11214
tp11215
(lp11216
S'END'
p11217
as(g7883
tp11218
(lp11219
S'with'
p11220
ag4592
aS'by'
p11221
aS'up'
p11222
aS'on'
p11223
aS'quickly'
p11224
aS'was'
p11225
aS'back'
p11226
aS'with'
p11227
as(g5857
tp11228
(lp11229
S'in'
p11230
as(g7302
tp11231
(lp11232
S'around'
p11233
aS'into'
p11234
aS'were'
p11235
aS'came'
p11236
as(g4201
tp11237
(lp11238
S'sound'
p11239
ag3540
aS'presence'
p11240
as(g3710
tp11241
(lp11242
S'please'
p11243
aS'please'
p11244
as(g995
tp11245
(lp11246
g2309
as(g4053
tp11247
(lp11248
g5399
as(g4202
tp11249
(lp11250
g8158
as(g9430
tp11251
(lp11252
S'are'
p11253
aS'from'
p11254
as(g5561
tp11255
(lp11256
g173
as(g6541
tp11257
(lp11258
S'that'
p11259
aS'where'
p11260
as(g10100
tp11261
(lp11262
S'it'
p11263
aS'you'
p11264
aS'the'
p11265
aS'it'
p11266
aS'that'
p11267
aS'now.'
p11268
as(g7330
tp11269
(lp11270
g11173
as(g4772
tp11271
(lp11272
g7458
as(g7340
tp11273
(lp11274
S'with'
p11275
as(g10276
tp11276
(lp11277
S'with'
p11278
as(g502
tp11279
(lp11280
S'had'
p11281
ag8352
as(g7894
tp11282
(lp11283
S'END'
p11284
as(g325
tp11285
(lp11286
S'smoke'
p11287
as(g10560
tp11288
(lp11289
S'END'
p11290
aS'END'
p11291
as(g3177
tp11292
(lp11293
S'and'
p11294
as(g4239
tp11295
(lp11296
S'that'
p11297
as(g6837
tp11298
(lp11299
S'with'
p11300
aS'to'
p11301
aS'ever'
p11302
aS'the'
p11303
aS'the'
p11304
aS'the'
p11305
ag10222
aS'as'
p11306
aS'left'
p11307
aS'been'
p11308
aS'no'
p11309
aS'to'
p11310
aS'seen'
p11311
aS'been'
p11312
aS'much'
p11313
aS'than'
p11314
aS'been'
p11315
ag2814
ag35
aS'ever'
p11316
aS'to'
p11317
ag1239
aS'ever'
p11318
aS'we'
p11319
aS'had'
p11320
ag35
aS'ever'
p11321
aS'ever'
p11322
aS'never'
p11323
aS'been'
p11324
ag5654
as(g3372
tp11325
(lp11326
S'the'
p11327
as(S'sunset,'
p11328
tp11329
(lp11330
g9037
as(g478
tp11331
(lp11332
S'with'
p11333
as(g9524
tp11334
(lp11335
S'they'
p11336
as(g3352
tp11337
(lp11338
S'my'
p11339
as(g1445
tp11340
(lp11341
S'END'
p11342
as(g8339
tp11343
(lp11344
g5346
as(g137
tp11345
(lp11346
S'became'
p11347
aS'started'
p11348
aS'came'
p11349
as(g7960
tp11350
(lp11351
S'my'
p11352
aS'up'
p11353
as(g4244
tp11354
(lp11355
g9109
aS'of'
p11356
as(g4164
tp11357
(lp11358
S'that'
p11359
aS'and'
p11360
as(g10692
tp11361
(lp11362
S'but'
p11363
as(g10566
tp11364
(lp11365
S'and'
p11366
aS'in'
p11367
aS'down,'
p11368
as(g3270
tp11369
(lp11370
S'there'
p11371
as(g10336
tp11372
(lp11373
S'of'
p11374
aS'through'
p11375
as(g8026
tp11376
(lp11377
S'me,'
p11378
as(g2035
tp11379
(lp11380
S'about'
p11381
as(g1458
tp11382
(lp11383
S'me'
p11384
as(g7190
tp11385
(lp11386
S'of'
p11387
as(g4792
tp11388
(lp11389
S'END'
p11390
as(g125
tp11391
(lp11392
S'up'
p11393
as(g40
tp11394
(lp11395
S'some'
p11396
as(g5353
tp11397
(lp11398
S'END'
p11399
as(g5808
tp11400
(lp11401
g2903
aS'my'
p11402
as(g10314
tp11403
(lp11404
S'that'
p11405
as(g5624
tp11406
(lp11407
S'and'
p11408
as(g4748
tp11409
(lp11410
g9144
as(g10532
tp11411
(lp11412
S'to'
p11413
aS'to'
p11414
aS'to'
p11415
aS'to'
p11416
aS'to'
p11417
aS'it'
p11418
ag1229
ag173
ag5676
as(g6596
tp11419
(lp11420
g7414
as(g7942
tp11421
(lp11422
S'by'
p11423
as(g8229
tp11424
(lp11425
S'and'
p11426
as(g5503
tp11427
(lp11428
S'were'
p11429
as(g6897
tp11430
(lp11431
S'of'
p11432
as(g6665
tp11433
(lp11434
S'of'
p11435
as(g4180
tp11436
(lp11437
S'loving'
p11438
as(g256
tp11439
(lp11440
S'actually'
p11441
aS'can'
p11442
aS'forget'
p11443
aS'for'
p11444
aS'to'
p11445
ag9292
aS'have'
p11446
aS'know'
p11447
ag830
aS'know'
p11448
aS'wonderful'
p11449
as(g9875
tp11450
(lp11451
S'just'
p11452
aS'of'
p11453
as(g4559
tp11454
(lp11455
S'around'
p11456
as(g4745
tp11457
(lp11458
g35
as(g3382
tp11459
(lp11460
S'you'
p11461
as(g5780
tp11462
(lp11463
S'of'
p11464
as(g1971
tp11465
(lp11466
S'and'
p11467
as(g4251
tp11468
(lp11469
g5409
as(g11128
tp11470
(lp11471
S'laughing.'
p11472
aS'together'
p11473
aS'to'
p11474
aS'to'
p11475
aS'the'
p11476
as(g10257
tp11477
(lp11478
g167
aS'smoke'
p11479
aS'smoke'
p11480
as(g10376
tp11481
(lp11482
S'in'
p11483
as(g9433
tp11484
(lp11485
S'END'
p11486
as(g3171
tp11487
(lp11488
g11328
ag7739
aS'some'
p11489
aS'some'
p11490
aS'this'
p11491
ag6079
aS'some'
p11492
aS'this'
p11493
aS'this'
p11494
as(g9610
tp11495
(lp11496
S'was'
p11497
as(g4011
tp11498
(lp11499
g8370
aS'close'
p11500
ag8304
ag5065
aS'important'
p11501
as(g2006
tp11502
(lp11503
S'around'
p11504
as(g4524
tp11505
(lp11506
S'this'
p11507
as(g8669
tp11508
(lp11509
S'to'
p11510
as(g8662
tp11511
(lp11512
S'END'
p11513
as(g8470
tp11514
(lp11515
g9780
as(g3182
tp11516
(lp11517
g6655
ag7572
ag10902
ag11122
aS'was'
p11518
aS'was'
p11519
aS'was'
p11520
ag1656
aS'was'
p11521
aS'would'
p11522
aS'was'
p11523
aS'was'
p11524
aS'looked'
p11525
aS'seemed'
p11526
aS'was'
p11527
aS'seemed'
p11528
aS'all'
p11529
aS'told'
p11530
aS'told'
p11531
aS'expressed'
p11532
aS'said'
p11533
aS'was'
p11534
aS'all'
p11535
ag1220
aS'is'
p11536
aS'was'
p11537
aS'tasted'
p11538
aS'felt'
p11539
aS'was'
p11540
aS'was'
p11541
aS'was'
p11542
aS'felt'
p11543
aS'was'
p11544
aS'had'
p11545
aS'was'
p11546
as(g2329
tp11547
(lp11548
S'END'
p11549
as(g7062
tp11550
(lp11551
S'the'
p11552
ag9747
ag3616
ag173
ag173
ag10928
aS'Ayahuasca.'
p11553
ag173
aS'the'
p11554
aS'my'
p11555
aS'and'
p11556
ag173
aS'my'
p11557
aS'it.'
p11558
ag173
aS'the'
p11559
aS'Earth'
p11560
aS'my'
p11561
aS'my'
p11562
aS'of'
p11563
aS'the'
p11564
aS'within'
p11565
aS'the'
p11566
aS'my'
p11567
aS'the'
p11568
aS'my'
p11569
as(g3968
tp11570
(lp11571
S'am'
p11572
as(g8490
tp11573
(lp11574
S'by'
p11575
as(g9633
tp11576
(lp11577
S'END'
p11578
aS'END'
p11579
aS'END'
p11580
as(g10305
tp11581
(lp11582
S'to'
p11583
as(g9260
tp11584
(lp11585
g9623
as(g8011
tp11586
(lp11587
S'into'
p11588
as(g7331
tp11589
(lp11590
S'END'
p11591
as(g5035
tp11592
(lp11593
g7246
aS'our'
p11594
aS'them'
p11595
aS'talking'
p11596
as(g8628
tp11597
(lp11598
S'flowing'
p11599
as(g5583
tp11600
(lp11601
g9298
aS'away.'
p11602
as(g7976
tp11603
(lp11604
S'that'
p11605
as(g3135
tp11606
(lp11607
S'to'
p11608
as(g5190
tp11609
(lp11610
S'would'
p11611
as(g9068
tp11612
(lp11613
S'to'
p11614
aS'than'
p11615
as(g73
tp11616
(lp11617
S'END'
p11618
as(g6140
tp11619
(lp11620
S'which'
p11621
as(g10321
tp11622
(lp11623
S'totally'
p11624
as(g6591
tp11625
(lp11626
S'that'
p11627
aS'it'
p11628
as(g10273
tp11629
(lp11630
g5919
as(g10279
tp11631
(lp11632
g704
as(g10672
tp11633
(lp11634
S'for'
p11635
as(g7882
tp11636
(lp11637
g1551
ag5468
ag1412
ag9694
ag5867
aS'real.'
p11638
aS'used'
p11639
ag11214
ag2213
ag11179
aS'like.'
p11640
aS'something'
p11641
aS'together'
p11642
ag2123
ag5435
ag10854
ag365
ag5703
aS'the'
p11643
aS'with'
p11644
ag11060
ag3018
ag3152
ag5827
ag8191
aS'many'
p11645
aS'an'
p11646
aS'in'
p11647
as(g4232
tp11648
(lp11649
S'by'
p11650
aS'with'
p11651
aS'with'
p11652
as(g7399
tp11653
(lp11654
S'and'
p11655
as(g1814
tp11656
(lp11657
g10984
aS'to'
p11658
as(g4176
tp11659
(lp11660
S'as'
p11661
as(g1390
tp11662
(lp11663
S'in'
p11664
as(g1250
tp11665
(lp11666
S'looked'
p11667
as(g3273
tp11668
(lp11669
S'of'
p11670
aS'told'
p11671
as(g744
tp11672
(lp11673
S'it'
p11674
as(g10282
tp11675
(lp11676
g10023
ag10932
aS'consciousness.'
p11677
ag7039
aS'life.'
p11678
as(g9281
tp11679
(lp11680
S'and'
p11681
ag173
as(g5307
tp11682
(lp11683
S'when'
p11684
as(g10309
tp11685
(lp11686
S'for'
p11687
aS'without'
p11688
as(g4436
tp11689
(lp11690
S'END'
p11691
as(g8718
tp11692
(lp11693
S'will'
p11694
as(g11202
tp11695
(lp11696
S'wrap'
p11697
aS'and'
p11698
aS'for'
p11699
ag10195
ag7463
as(g9974
tp11700
(lp11701
S'of'
p11702
aS'of'
p11703
as(g4016
tp11704
(lp11705
g7395
aS'we'
p11706
aS'more'
p11707
aS'more'
p11708
aS'more'
p11709
ag8735
aS'longer'
p11710
aS'of'
p11711
ag10083
ag1252
as(g7679
tp11712
(lp11713
S'END'
p11714
as(g4243
tp11715
(lp11716
g2828
ag4115
as(g5259
tp11717
(lp11718
S'and'
p11719
as(g10163
tp11720
(lp11721
g8760
ag6906
aS'desire'
p11722
aS'enough'
p11723
ag10979
as(g9559
tp11724
(lp11725
S'to'
p11726
as(g11472
tp11727
(lp11728
S'END'
p11729
as(g11008
tp11730
(lp11731
g7110
as(g7251
tp11732
(lp11733
S'in'
p11734
as(g4568
tp11735
(lp11736
g7762
ag4479
aS'really'
p11737
aS'always'
p11738
aS'look'
p11739
ag9446
as(g4425
tp11740
(lp11741
g35
as(g6645
tp11742
(lp11743
S'me,'
p11744
aS'her'
p11745
aS'me'
p11746
aS'me'
p11747
aS'if'
p11748
as(g5205
tp11749
(lp11750
g514
aS'the'
p11751
ag549
ag5340
as(g8263
tp11752
(lp11753
S'like'
p11754
as(g3945
tp11755
(lp11756
S'in'
p11757
ag7598
as(g6551
tp11758
(lp11759
g6898
as(g1004
tp11760
(lp11761
S'me'
p11762
aS'me'
p11763
as(g9492
tp11764
(lp11765
S'to'
p11766
ag1669
aS'and'
p11767
aS'to'
p11768
as(g4161
tp11769
(lp11770
S'that'
p11771
as(g6010
tp11772
(lp11773
S'END'
p11774
as(g10866
tp11775
(lp11776
S'and'
p11777
aS'as'
p11778
as(g3254
tp11779
(lp11780
g173
aS'about'
p11781
as(g8938
tp11782
(lp11783
S'they'
p11784
as(g10170
tp11785
(lp11786
g6127
as.